
kernel8.elf:     file format elf64-littleaarch64


Disassembly of section .text:

0000000000080000 <_start>:
   80000:	d53800a1 	mrs	x1, mpidr_el1
   80004:	92400421 	and	x1, x1, #0x3
   80008:	b4000061 	cbz	x1, 80014 <_start+0x14>
   8000c:	d503205f 	wfe
   80010:	17ffffff 	b	8000c <_start+0xc>
   80014:	580001a1 	ldr	x1, 80048 <_start+0x48>
   80018:	f9000020 	str	x0, [x1]
   8001c:	940013da 	bl	84f84 <set_exception_vector_table>
   80020:	94000ff8 	bl	84000 <from_el2_to_el1>
   80024:	58000161 	ldr	x1, 80050 <_start+0x50>
   80028:	180000e2 	ldr	w2, 80044 <_start+0x44>
   8002c:	34000082 	cbz	w2, 8003c <_start+0x3c>
   80030:	f800843f 	str	xzr, [x1], #8
   80034:	51000442 	sub	w2, w2, #0x1
   80038:	35ffffa2 	cbnz	w2, 8002c <_start+0x2c>
   8003c:	9400059e 	bl	816b4 <main>
   80040:	17fffff3 	b	8000c <_start+0xc>
   80044:	00010504 	.word	0x00010504
   80048:	0007fff0 	.word	0x0007fff0
   8004c:	00000000 	.word	0x00000000
   80050:	00085c40 	.word	0x00085c40
   80054:	00000000 	.word	0x00000000

0000000000080058 <wait_cycles>:
   80058:	d10043ff 	sub	sp, sp, #0x10
   8005c:	b9000fe0 	str	w0, [sp, #12]
   80060:	b9400fe0 	ldr	w0, [sp, #12]
   80064:	7100001f 	cmp	w0, #0x0
   80068:	54000100 	b.eq	80088 <wait_cycles+0x30>  // b.none
   8006c:	14000002 	b	80074 <wait_cycles+0x1c>
   80070:	d503201f 	nop
   80074:	b9400fe0 	ldr	w0, [sp, #12]
   80078:	51000401 	sub	w1, w0, #0x1
   8007c:	b9000fe1 	str	w1, [sp, #12]
   80080:	7100001f 	cmp	w0, #0x0
   80084:	54ffff61 	b.ne	80070 <wait_cycles+0x18>  // b.any
   80088:	d503201f 	nop
   8008c:	910043ff 	add	sp, sp, #0x10
   80090:	d65f03c0 	ret

0000000000080094 <wait_msec>:
   80094:	a9bd53f3 	stp	x19, x20, [sp, #-48]!
   80098:	b9001fe0 	str	w0, [sp, #28]
   8009c:	d53be000 	mrs	x0, cntfrq_el0
   800a0:	aa0003f4 	mov	x20, x0
   800a4:	d53be020 	mrs	x0, cntpct_el0
   800a8:	aa0003f3 	mov	x19, x0
   800ac:	d343fe81 	lsr	x1, x20, #3
   800b0:	d29ef9e0 	mov	x0, #0xf7cf                	// #63439
   800b4:	f2bc6a60 	movk	x0, #0xe353, lsl #16
   800b8:	f2d374a0 	movk	x0, #0x9ba5, lsl #32
   800bc:	f2e41880 	movk	x0, #0x20c4, lsl #48
   800c0:	9bc07c20 	umulh	x0, x1, x0
   800c4:	d344fc01 	lsr	x1, x0, #4
   800c8:	b9401fe0 	ldr	w0, [sp, #28]
   800cc:	9b007c20 	mul	x0, x1, x0
   800d0:	d343fc01 	lsr	x1, x0, #3
   800d4:	d29ef9e0 	mov	x0, #0xf7cf                	// #63439
   800d8:	f2bc6a60 	movk	x0, #0xe353, lsl #16
   800dc:	f2d374a0 	movk	x0, #0x9ba5, lsl #32
   800e0:	f2e41880 	movk	x0, #0x20c4, lsl #48
   800e4:	9bc07c20 	umulh	x0, x1, x0
   800e8:	d344fc00 	lsr	x0, x0, #4
   800ec:	f90017e0 	str	x0, [sp, #40]
   800f0:	d53be020 	mrs	x0, cntpct_el0
   800f4:	aa0003f4 	mov	x20, x0
   800f8:	cb130280 	sub	x0, x20, x19
   800fc:	f94017e1 	ldr	x1, [sp, #40]
   80100:	eb00003f 	cmp	x1, x0
   80104:	54ffff68 	b.hi	800f0 <wait_msec+0x5c>  // b.pmore
   80108:	d503201f 	nop
   8010c:	d503201f 	nop
   80110:	a8c353f3 	ldp	x19, x20, [sp], #48
   80114:	d65f03c0 	ret

0000000000080118 <wait_sec>:
   80118:	a9be7bfd 	stp	x29, x30, [sp, #-32]!
   8011c:	910003fd 	mov	x29, sp
   80120:	b9001fe0 	str	w0, [sp, #28]
   80124:	b9401fe1 	ldr	w1, [sp, #28]
   80128:	52884800 	mov	w0, #0x4240                	// #16960
   8012c:	72a001e0 	movk	w0, #0xf, lsl #16
   80130:	1b007c20 	mul	w0, w1, w0
   80134:	97ffffd8 	bl	80094 <wait_msec>
   80138:	d503201f 	nop
   8013c:	a8c27bfd 	ldp	x29, x30, [sp], #32
   80140:	d65f03c0 	ret

0000000000080144 <get_system_timer>:
   80144:	d10043ff 	sub	sp, sp, #0x10
   80148:	12800000 	mov	w0, #0xffffffff            	// #-1
   8014c:	b9000fe0 	str	w0, [sp, #12]
   80150:	d2860100 	mov	x0, #0x3008                	// #12296
   80154:	f2a7e000 	movk	x0, #0x3f00, lsl #16
   80158:	b9400000 	ldr	w0, [x0]
   8015c:	b9000fe0 	str	w0, [sp, #12]
   80160:	d2860080 	mov	x0, #0x3004                	// #12292
   80164:	f2a7e000 	movk	x0, #0x3f00, lsl #16
   80168:	b9400000 	ldr	w0, [x0]
   8016c:	b9000be0 	str	w0, [sp, #8]
   80170:	d2860100 	mov	x0, #0x3008                	// #12296
   80174:	f2a7e000 	movk	x0, #0x3f00, lsl #16
   80178:	b9400000 	ldr	w0, [x0]
   8017c:	b9400fe1 	ldr	w1, [sp, #12]
   80180:	6b00003f 	cmp	w1, w0
   80184:	54000120 	b.eq	801a8 <get_system_timer+0x64>  // b.none
   80188:	d2860100 	mov	x0, #0x3008                	// #12296
   8018c:	f2a7e000 	movk	x0, #0x3f00, lsl #16
   80190:	b9400000 	ldr	w0, [x0]
   80194:	b9000fe0 	str	w0, [sp, #12]
   80198:	d2860080 	mov	x0, #0x3004                	// #12292
   8019c:	f2a7e000 	movk	x0, #0x3f00, lsl #16
   801a0:	b9400000 	ldr	w0, [x0]
   801a4:	b9000be0 	str	w0, [sp, #8]
   801a8:	b9400fe0 	ldr	w0, [sp, #12]
   801ac:	d3607c01 	lsl	x1, x0, #32
   801b0:	b9400be0 	ldr	w0, [sp, #8]
   801b4:	aa000020 	orr	x0, x1, x0
   801b8:	910043ff 	add	sp, sp, #0x10
   801bc:	d65f03c0 	ret

00000000000801c0 <wait_msec_st>:
   801c0:	a9bd7bfd 	stp	x29, x30, [sp, #-48]!
   801c4:	910003fd 	mov	x29, sp
   801c8:	b9001fe0 	str	w0, [sp, #28]
   801cc:	97ffffde 	bl	80144 <get_system_timer>
   801d0:	f90017e0 	str	x0, [sp, #40]
   801d4:	f94017e0 	ldr	x0, [sp, #40]
   801d8:	f100001f 	cmp	x0, #0x0
   801dc:	54000120 	b.eq	80200 <wait_msec_st+0x40>  // b.none
   801e0:	d503201f 	nop
   801e4:	97ffffd8 	bl	80144 <get_system_timer>
   801e8:	aa0003e1 	mov	x1, x0
   801ec:	f94017e0 	ldr	x0, [sp, #40]
   801f0:	cb000021 	sub	x1, x1, x0
   801f4:	b9401fe0 	ldr	w0, [sp, #28]
   801f8:	eb00003f 	cmp	x1, x0
   801fc:	54ffff43 	b.cc	801e4 <wait_msec_st+0x24>  // b.lo, b.ul, b.last
   80200:	d503201f 	nop
   80204:	a8c37bfd 	ldp	x29, x30, [sp], #48
   80208:	d65f03c0 	ret

000000000008020c <demo_task1>:
   8020c:	a9bf7bfd 	stp	x29, x30, [sp, #-16]!
   80210:	910003fd 	mov	x29, sp
   80214:	b0000020 	adrp	x0, 85000 <exception_handler+0x70>
   80218:	91096000 	add	x0, x0, #0x258
   8021c:	94000d9b 	bl	83888 <uart_puts>
   80220:	52800020 	mov	w0, #0x1                   	// #1
   80224:	97ffffbd 	bl	80118 <wait_sec>
   80228:	94000736 	bl	81f00 <schedule>
   8022c:	d503201f 	nop
   80230:	17fffff9 	b	80214 <demo_task1+0x8>

0000000000080234 <demo_task2>:
   80234:	a9bf7bfd 	stp	x29, x30, [sp, #-16]!
   80238:	910003fd 	mov	x29, sp
   8023c:	b0000020 	adrp	x0, 85000 <exception_handler+0x70>
   80240:	9109a000 	add	x0, x0, #0x268
   80244:	94000d91 	bl	83888 <uart_puts>
   80248:	52800020 	mov	w0, #0x1                   	// #1
   8024c:	97ffffb3 	bl	80118 <wait_sec>
   80250:	9400072c 	bl	81f00 <schedule>
   80254:	d503201f 	nop
   80258:	17fffff9 	b	8023c <demo_task2+0x8>

000000000008025c <timer_task1>:
   8025c:	a9bf7bfd 	stp	x29, x30, [sp, #-16]!
   80260:	910003fd 	mov	x29, sp
   80264:	b0000020 	adrp	x0, 85000 <exception_handler+0x70>
   80268:	9109e000 	add	x0, x0, #0x278
   8026c:	94000d87 	bl	83888 <uart_puts>
   80270:	52800140 	mov	w0, #0xa                   	// #10
   80274:	97ffffa9 	bl	80118 <wait_sec>
   80278:	d503201f 	nop
   8027c:	17fffffa 	b	80264 <timer_task1+0x8>

0000000000080280 <timer_task2>:
   80280:	a9bf7bfd 	stp	x29, x30, [sp, #-16]!
   80284:	910003fd 	mov	x29, sp
   80288:	b0000020 	adrp	x0, 85000 <exception_handler+0x70>
   8028c:	910a4000 	add	x0, x0, #0x290
   80290:	94000d7e 	bl	83888 <uart_puts>
   80294:	52800140 	mov	w0, #0xa                   	// #10
   80298:	97ffffa0 	bl	80118 <wait_sec>
   8029c:	d503201f 	nop
   802a0:	17fffffa 	b	80288 <timer_task2+0x8>

00000000000802a4 <user_task1>:
   802a4:	a9be7bfd 	stp	x29, x30, [sp, #-32]!
   802a8:	910003fd 	mov	x29, sp
   802ac:	b0000020 	adrp	x0, 85000 <exception_handler+0x70>
   802b0:	910aa000 	add	x0, x0, #0x2a8
   802b4:	94000d75 	bl	83888 <uart_puts>
   802b8:	52994000 	mov	w0, #0xca00                	// #51712
   802bc:	72a77340 	movk	w0, #0x3b9a, lsl #16
   802c0:	b9001fe0 	str	w0, [sp, #28]
   802c4:	d503201f 	nop
   802c8:	b9401fe0 	ldr	w0, [sp, #28]
   802cc:	51000401 	sub	w1, w0, #0x1
   802d0:	b9001fe1 	str	w1, [sp, #28]
   802d4:	7100001f 	cmp	w0, #0x0
   802d8:	54ffff81 	b.ne	802c8 <user_task1+0x24>  // b.any
   802dc:	17fffff4 	b	802ac <user_task1+0x8>

00000000000802e0 <user_task2>:
   802e0:	a9be7bfd 	stp	x29, x30, [sp, #-32]!
   802e4:	910003fd 	mov	x29, sp
   802e8:	b0000020 	adrp	x0, 85000 <exception_handler+0x70>
   802ec:	910ae000 	add	x0, x0, #0x2b8
   802f0:	94000d66 	bl	83888 <uart_puts>
   802f4:	52994000 	mov	w0, #0xca00                	// #51712
   802f8:	72a77340 	movk	w0, #0x3b9a, lsl #16
   802fc:	b9001fe0 	str	w0, [sp, #28]
   80300:	d503201f 	nop
   80304:	b9401fe0 	ldr	w0, [sp, #28]
   80308:	51000401 	sub	w1, w0, #0x1
   8030c:	b9001fe1 	str	w1, [sp, #28]
   80310:	7100001f 	cmp	w0, #0x0
   80314:	54ffff81 	b.ne	80304 <user_task2+0x24>  // b.any
   80318:	17fffff4 	b	802e8 <user_task2+0x8>

000000000008031c <demo_do_exec1>:
   8031c:	a9bf7bfd 	stp	x29, x30, [sp, #-16]!
   80320:	910003fd 	mov	x29, sp
   80324:	90000000 	adrp	x0, 80000 <_start>
   80328:	910a9000 	add	x0, x0, #0x2a4
   8032c:	9400031d 	bl	80fa0 <do_exec>
   80330:	d503201f 	nop
   80334:	a8c17bfd 	ldp	x29, x30, [sp], #16
   80338:	d65f03c0 	ret

000000000008033c <demo_do_exec2>:
   8033c:	a9bf7bfd 	stp	x29, x30, [sp, #-16]!
   80340:	910003fd 	mov	x29, sp
   80344:	90000000 	adrp	x0, 80000 <_start>
   80348:	910b8000 	add	x0, x0, #0x2e0
   8034c:	94000315 	bl	80fa0 <do_exec>
   80350:	d503201f 	nop
   80354:	a8c17bfd 	ldp	x29, x30, [sp], #16
   80358:	d65f03c0 	ret

000000000008035c <delay>:
   8035c:	d10043ff 	sub	sp, sp, #0x10
   80360:	d2900000 	mov	x0, #0x8000                	// #32768
   80364:	f2b498c0 	movk	x0, #0xa4c6, lsl #16
   80368:	f2d1afc0 	movk	x0, #0x8d7e, lsl #32
   8036c:	f2e00060 	movk	x0, #0x3, lsl #48
   80370:	f90007e0 	str	x0, [sp, #8]
   80374:	d503201f 	nop
   80378:	f94007e0 	ldr	x0, [sp, #8]
   8037c:	d1000401 	sub	x1, x0, #0x1
   80380:	f90007e1 	str	x1, [sp, #8]
   80384:	f100001f 	cmp	x0, #0x0
   80388:	54ffff81 	b.ne	80378 <delay+0x1c>  // b.any
   8038c:	d503201f 	nop
   80390:	d503201f 	nop
   80394:	910043ff 	add	sp, sp, #0x10
   80398:	d65f03c0 	ret

000000000008039c <foo>:
   8039c:	a9be7bfd 	stp	x29, x30, [sp, #-32]!
   803a0:	910003fd 	mov	x29, sp
   803a4:	528000a0 	mov	w0, #0x5                   	// #5
   803a8:	b9001fe0 	str	w0, [sp, #28]
   803ac:	9400138e 	bl	851e4 <get_taskid>
   803b0:	2a0003e4 	mov	w4, w0
   803b4:	b9401fe1 	ldr	w1, [sp, #28]
   803b8:	910073e0 	add	x0, sp, #0x1c
   803bc:	2a0103e3 	mov	w3, w1
   803c0:	aa0003e2 	mov	x2, x0
   803c4:	2a0403e1 	mov	w1, w4
   803c8:	b0000020 	adrp	x0, 85000 <exception_handler+0x70>
   803cc:	910b2000 	add	x0, x0, #0x2c8
   803d0:	94000d72 	bl	83998 <printf>
   803d4:	52800000 	mov	w0, #0x0                   	// #0
   803d8:	94001392 	bl	85220 <exit>
   803dc:	d503201f 	nop
   803e0:	a8c27bfd 	ldp	x29, x30, [sp], #32
   803e4:	d65f03c0 	ret

00000000000803e8 <test>:
   803e8:	a9be7bfd 	stp	x29, x30, [sp, #-32]!
   803ec:	910003fd 	mov	x29, sp
   803f0:	b0000020 	adrp	x0, 85000 <exception_handler+0x70>
   803f4:	910c0000 	add	x0, x0, #0x300
   803f8:	94000d68 	bl	83998 <printf>
   803fc:	52800020 	mov	w0, #0x1                   	// #1
   80400:	b9001fe0 	str	w0, [sp, #28]
   80404:	94001384 	bl	85214 <fork>
   80408:	7100001f 	cmp	w0, #0x0
   8040c:	54000321 	b.ne	80470 <test+0x88>  // b.any
   80410:	94001381 	bl	85214 <fork>
   80414:	97ffffd2 	bl	8035c <delay>
   80418:	9400137f 	bl	85214 <fork>
   8041c:	1400000c 	b	8044c <test+0x64>
   80420:	94001371 	bl	851e4 <get_taskid>
   80424:	2a0003e1 	mov	w1, w0
   80428:	b9401fe0 	ldr	w0, [sp, #28]
   8042c:	2a0003e2 	mov	w2, w0
   80430:	b0000020 	adrp	x0, 85000 <exception_handler+0x70>
   80434:	910c4000 	add	x0, x0, #0x310
   80438:	94000d58 	bl	83998 <printf>
   8043c:	97ffffc8 	bl	8035c <delay>
   80440:	b9401fe0 	ldr	w0, [sp, #28]
   80444:	11000400 	add	w0, w0, #0x1
   80448:	b9001fe0 	str	w0, [sp, #28]
   8044c:	b9401fe0 	ldr	w0, [sp, #28]
   80450:	7100241f 	cmp	w0, #0x9
   80454:	54fffe6d 	b.le	80420 <test+0x38>
   80458:	52800000 	mov	w0, #0x0                   	// #0
   8045c:	94001371 	bl	85220 <exit>
   80460:	b0000020 	adrp	x0, 85000 <exception_handler+0x70>
   80464:	910ca000 	add	x0, x0, #0x328
   80468:	94000d4c 	bl	83998 <printf>
   8046c:	1400000e 	b	804a4 <test+0xbc>
   80470:	9400135d 	bl	851e4 <get_taskid>
   80474:	2a0003e4 	mov	w4, w0
   80478:	b9401fe1 	ldr	w1, [sp, #28]
   8047c:	910073e0 	add	x0, sp, #0x1c
   80480:	2a0103e3 	mov	w3, w1
   80484:	aa0003e2 	mov	x2, x0
   80488:	2a0403e1 	mov	w1, w4
   8048c:	b0000020 	adrp	x0, 85000 <exception_handler+0x70>
   80490:	910d0000 	add	x0, x0, #0x340
   80494:	94000d41 	bl	83998 <printf>
   80498:	90000000 	adrp	x0, 80000 <_start>
   8049c:	910e7000 	add	x0, x0, #0x39c
   804a0:	9400135a 	bl	85208 <exec>
   804a4:	d503201f 	nop
   804a8:	a8c27bfd 	ldp	x29, x30, [sp], #32
   804ac:	d65f03c0 	ret

00000000000804b0 <user_test>:
   804b0:	a9bf7bfd 	stp	x29, x30, [sp, #-16]!
   804b4:	910003fd 	mov	x29, sp
   804b8:	90000000 	adrp	x0, 80000 <_start>
   804bc:	910fa000 	add	x0, x0, #0x3e8
   804c0:	940002b8 	bl	80fa0 <do_exec>
   804c4:	d503201f 	nop
   804c8:	a8c17bfd 	ldp	x29, x30, [sp], #16
   804cc:	d65f03c0 	ret

00000000000804d0 <fdt_init>:
   804d0:	d10043ff 	sub	sp, sp, #0x10
   804d4:	f0ffffe0 	adrp	x0, 7f000 <__bss_size+0x6eafc>
   804d8:	913fc000 	add	x0, x0, #0xff0
   804dc:	f90007e0 	str	x0, [sp, #8]
   804e0:	f94007e0 	ldr	x0, [sp, #8]
   804e4:	f9400000 	ldr	x0, [x0]
   804e8:	aa0003e1 	mov	x1, x0
   804ec:	b0000020 	adrp	x0, 85000 <exception_handler+0x70>
   804f0:	91310000 	add	x0, x0, #0xc40
   804f4:	f9000001 	str	x1, [x0]
   804f8:	d503201f 	nop
   804fc:	910043ff 	add	sp, sp, #0x10
   80500:	d65f03c0 	ret

0000000000080504 <fdt_traverse>:
   80504:	a9ba7bfd 	stp	x29, x30, [sp, #-96]!
   80508:	910003fd 	mov	x29, sp
   8050c:	f9000fe0 	str	x0, [sp, #24]
   80510:	b0000020 	adrp	x0, 85000 <exception_handler+0x70>
   80514:	91310000 	add	x0, x0, #0xc40
   80518:	f9400000 	ldr	x0, [x0]
   8051c:	b9400000 	ldr	w0, [x0]
   80520:	53187c01 	lsr	w1, w0, #24
   80524:	b0000020 	adrp	x0, 85000 <exception_handler+0x70>
   80528:	91310000 	add	x0, x0, #0xc40
   8052c:	f9400000 	ldr	x0, [x0]
   80530:	b9400000 	ldr	w0, [x0]
   80534:	53081c00 	lsl	w0, w0, #24
   80538:	2a000021 	orr	w1, w1, w0
   8053c:	b0000020 	adrp	x0, 85000 <exception_handler+0x70>
   80540:	91310000 	add	x0, x0, #0xc40
   80544:	f9400000 	ldr	x0, [x0]
   80548:	b9400000 	ldr	w0, [x0]
   8054c:	53185c00 	lsl	w0, w0, #8
   80550:	12101c00 	and	w0, w0, #0xff0000
   80554:	2a000021 	orr	w1, w1, w0
   80558:	b0000020 	adrp	x0, 85000 <exception_handler+0x70>
   8055c:	91310000 	add	x0, x0, #0xc40
   80560:	f9400000 	ldr	x0, [x0]
   80564:	b9400000 	ldr	w0, [x0]
   80568:	53087c00 	lsr	w0, w0, #8
   8056c:	12181c00 	and	w0, w0, #0xff00
   80570:	2a000021 	orr	w1, w1, w0
   80574:	529fdda0 	mov	w0, #0xfeed                	// #65261
   80578:	72ba01a0 	movk	w0, #0xd00d, lsl #16
   8057c:	6b00003f 	cmp	w1, w0
   80580:	54001661 	b.ne	8084c <fdt_traverse+0x348>  // b.any
   80584:	b0000020 	adrp	x0, 85000 <exception_handler+0x70>
   80588:	91310000 	add	x0, x0, #0xc40
   8058c:	f9400001 	ldr	x1, [x0]
   80590:	b0000020 	adrp	x0, 85000 <exception_handler+0x70>
   80594:	91310000 	add	x0, x0, #0xc40
   80598:	f9400000 	ldr	x0, [x0]
   8059c:	b9400800 	ldr	w0, [x0, #8]
   805a0:	53187c02 	lsr	w2, w0, #24
   805a4:	b0000020 	adrp	x0, 85000 <exception_handler+0x70>
   805a8:	91310000 	add	x0, x0, #0xc40
   805ac:	f9400000 	ldr	x0, [x0]
   805b0:	b9400800 	ldr	w0, [x0, #8]
   805b4:	53081c00 	lsl	w0, w0, #24
   805b8:	2a000042 	orr	w2, w2, w0
   805bc:	b0000020 	adrp	x0, 85000 <exception_handler+0x70>
   805c0:	91310000 	add	x0, x0, #0xc40
   805c4:	f9400000 	ldr	x0, [x0]
   805c8:	b9400800 	ldr	w0, [x0, #8]
   805cc:	53185c00 	lsl	w0, w0, #8
   805d0:	12101c00 	and	w0, w0, #0xff0000
   805d4:	2a000042 	orr	w2, w2, w0
   805d8:	b0000020 	adrp	x0, 85000 <exception_handler+0x70>
   805dc:	91310000 	add	x0, x0, #0xc40
   805e0:	f9400000 	ldr	x0, [x0]
   805e4:	b9400800 	ldr	w0, [x0, #8]
   805e8:	53087c00 	lsr	w0, w0, #8
   805ec:	12181c00 	and	w0, w0, #0xff00
   805f0:	2a000040 	orr	w0, w2, w0
   805f4:	2a0003e0 	mov	w0, w0
   805f8:	8b000020 	add	x0, x1, x0
   805fc:	f9002fe0 	str	x0, [sp, #88]
   80600:	b0000020 	adrp	x0, 85000 <exception_handler+0x70>
   80604:	91310000 	add	x0, x0, #0xc40
   80608:	f9400000 	ldr	x0, [x0]
   8060c:	2a0003e2 	mov	w2, w0
   80610:	b0000020 	adrp	x0, 85000 <exception_handler+0x70>
   80614:	91310000 	add	x0, x0, #0xc40
   80618:	f9400000 	ldr	x0, [x0]
   8061c:	b9400c00 	ldr	w0, [x0, #12]
   80620:	53187c01 	lsr	w1, w0, #24
   80624:	b0000020 	adrp	x0, 85000 <exception_handler+0x70>
   80628:	91310000 	add	x0, x0, #0xc40
   8062c:	f9400000 	ldr	x0, [x0]
   80630:	b9400c00 	ldr	w0, [x0, #12]
   80634:	53081c00 	lsl	w0, w0, #24
   80638:	2a000021 	orr	w1, w1, w0
   8063c:	b0000020 	adrp	x0, 85000 <exception_handler+0x70>
   80640:	91310000 	add	x0, x0, #0xc40
   80644:	f9400000 	ldr	x0, [x0]
   80648:	b9400c00 	ldr	w0, [x0, #12]
   8064c:	53185c00 	lsl	w0, w0, #8
   80650:	12101c00 	and	w0, w0, #0xff0000
   80654:	2a000021 	orr	w1, w1, w0
   80658:	b0000020 	adrp	x0, 85000 <exception_handler+0x70>
   8065c:	91310000 	add	x0, x0, #0xc40
   80660:	f9400000 	ldr	x0, [x0]
   80664:	b9400c00 	ldr	w0, [x0, #12]
   80668:	53087c00 	lsr	w0, w0, #8
   8066c:	12181c00 	and	w0, w0, #0xff00
   80670:	2a000020 	orr	w0, w1, w0
   80674:	0b000040 	add	w0, w2, w0
   80678:	2a0003e0 	mov	w0, w0
   8067c:	f90023e0 	str	x0, [sp, #64]
   80680:	f9002bff 	str	xzr, [sp, #80]
   80684:	b9004fff 	str	wzr, [sp, #76]
   80688:	1400006d 	b	8083c <fdt_traverse+0x338>
   8068c:	f9402fe0 	ldr	x0, [sp, #88]
   80690:	b9400000 	ldr	w0, [x0]
   80694:	53187c01 	lsr	w1, w0, #24
   80698:	f9402fe0 	ldr	x0, [sp, #88]
   8069c:	b9400000 	ldr	w0, [x0]
   806a0:	53081c00 	lsl	w0, w0, #24
   806a4:	2a000021 	orr	w1, w1, w0
   806a8:	f9402fe0 	ldr	x0, [sp, #88]
   806ac:	b9400000 	ldr	w0, [x0]
   806b0:	53185c00 	lsl	w0, w0, #8
   806b4:	12101c00 	and	w0, w0, #0xff0000
   806b8:	2a000021 	orr	w1, w1, w0
   806bc:	f9402fe0 	ldr	x0, [sp, #88]
   806c0:	b9400000 	ldr	w0, [x0]
   806c4:	53087c00 	lsr	w0, w0, #8
   806c8:	12181c00 	and	w0, w0, #0xff00
   806cc:	2a000020 	orr	w0, w1, w0
   806d0:	b9003fe0 	str	w0, [sp, #60]
   806d4:	b9403fe0 	ldr	w0, [sp, #60]
   806d8:	7100241f 	cmp	w0, #0x9
   806dc:	54000a20 	b.eq	80820 <fdt_traverse+0x31c>  // b.none
   806e0:	b9403fe0 	ldr	w0, [sp, #60]
   806e4:	7100241f 	cmp	w0, #0x9
   806e8:	54000a28 	b.hi	8082c <fdt_traverse+0x328>  // b.pmore
   806ec:	b9403fe0 	ldr	w0, [sp, #60]
   806f0:	7100041f 	cmp	w0, #0x1
   806f4:	540000a0 	b.eq	80708 <fdt_traverse+0x204>  // b.none
   806f8:	b9403fe0 	ldr	w0, [sp, #60]
   806fc:	71000c1f 	cmp	w0, #0x3
   80700:	54000240 	b.eq	80748 <fdt_traverse+0x244>  // b.none
   80704:	1400004a 	b	8082c <fdt_traverse+0x328>
   80708:	f9402fe0 	ldr	x0, [sp, #88]
   8070c:	f90013e0 	str	x0, [sp, #32]
   80710:	f94013e0 	ldr	x0, [sp, #32]
   80714:	91001000 	add	x0, x0, #0x4
   80718:	f9002be0 	str	x0, [sp, #80]
   8071c:	f94013e0 	ldr	x0, [sp, #32]
   80720:	91001000 	add	x0, x0, #0x4
   80724:	9400098b 	bl	82d50 <strlen>
   80728:	11000c00 	add	w0, w0, #0x3
   8072c:	13027c00 	asr	w0, w0, #2
   80730:	93407c00 	sxtw	x0, w0
   80734:	d37ef400 	lsl	x0, x0, #2
   80738:	f9402fe1 	ldr	x1, [sp, #88]
   8073c:	8b000020 	add	x0, x1, x0
   80740:	f9002fe0 	str	x0, [sp, #88]
   80744:	1400003b 	b	80830 <fdt_traverse+0x32c>
   80748:	f9402fe0 	ldr	x0, [sp, #88]
   8074c:	91001000 	add	x0, x0, #0x4
   80750:	f9001be0 	str	x0, [sp, #48]
   80754:	f9401be0 	ldr	x0, [sp, #48]
   80758:	b9400000 	ldr	w0, [x0]
   8075c:	53187c01 	lsr	w1, w0, #24
   80760:	f9401be0 	ldr	x0, [sp, #48]
   80764:	b9400000 	ldr	w0, [x0]
   80768:	53081c00 	lsl	w0, w0, #24
   8076c:	2a000021 	orr	w1, w1, w0
   80770:	f9401be0 	ldr	x0, [sp, #48]
   80774:	b9400000 	ldr	w0, [x0]
   80778:	53185c00 	lsl	w0, w0, #8
   8077c:	12101c00 	and	w0, w0, #0xff0000
   80780:	2a000021 	orr	w1, w1, w0
   80784:	f9401be0 	ldr	x0, [sp, #48]
   80788:	b9400000 	ldr	w0, [x0]
   8078c:	53087c00 	lsr	w0, w0, #8
   80790:	12181c00 	and	w0, w0, #0xff00
   80794:	2a000020 	orr	w0, w1, w0
   80798:	11000c00 	add	w0, w0, #0x3
   8079c:	2a0003e0 	mov	w0, w0
   807a0:	927e7400 	and	x0, x0, #0xfffffffc
   807a4:	91002000 	add	x0, x0, #0x8
   807a8:	f9402fe1 	ldr	x1, [sp, #88]
   807ac:	8b000020 	add	x0, x1, x0
   807b0:	f9002fe0 	str	x0, [sp, #88]
   807b4:	f9401be0 	ldr	x0, [sp, #48]
   807b8:	b9400400 	ldr	w0, [x0, #4]
   807bc:	53187c01 	lsr	w1, w0, #24
   807c0:	f9401be0 	ldr	x0, [sp, #48]
   807c4:	b9400400 	ldr	w0, [x0, #4]
   807c8:	53081c00 	lsl	w0, w0, #24
   807cc:	2a000021 	orr	w1, w1, w0
   807d0:	f9401be0 	ldr	x0, [sp, #48]
   807d4:	b9400400 	ldr	w0, [x0, #4]
   807d8:	53185c00 	lsl	w0, w0, #8
   807dc:	12101c00 	and	w0, w0, #0xff0000
   807e0:	2a000021 	orr	w1, w1, w0
   807e4:	f9401be0 	ldr	x0, [sp, #48]
   807e8:	b9400400 	ldr	w0, [x0, #4]
   807ec:	53087c00 	lsr	w0, w0, #8
   807f0:	12181c00 	and	w0, w0, #0xff00
   807f4:	2a000020 	orr	w0, w1, w0
   807f8:	2a0003e0 	mov	w0, w0
   807fc:	f94023e1 	ldr	x1, [sp, #64]
   80800:	8b000020 	add	x0, x1, x0
   80804:	f90017e0 	str	x0, [sp, #40]
   80808:	f9400fe3 	ldr	x3, [sp, #24]
   8080c:	f94017e2 	ldr	x2, [sp, #40]
   80810:	f9402be1 	ldr	x1, [sp, #80]
   80814:	f9401be0 	ldr	x0, [sp, #48]
   80818:	d63f0060 	blr	x3
   8081c:	14000005 	b	80830 <fdt_traverse+0x32c>
   80820:	52800020 	mov	w0, #0x1                   	// #1
   80824:	b9004fe0 	str	w0, [sp, #76]
   80828:	14000002 	b	80830 <fdt_traverse+0x32c>
   8082c:	d503201f 	nop
   80830:	f9402fe0 	ldr	x0, [sp, #88]
   80834:	91001000 	add	x0, x0, #0x4
   80838:	f9002fe0 	str	x0, [sp, #88]
   8083c:	b9404fe0 	ldr	w0, [sp, #76]
   80840:	7100001f 	cmp	w0, #0x0
   80844:	54fff240 	b.eq	8068c <fdt_traverse+0x188>  // b.none
   80848:	14000002 	b	80850 <fdt_traverse+0x34c>
   8084c:	d503201f 	nop
   80850:	a8c67bfd 	ldp	x29, x30, [sp], #96
   80854:	d65f03c0 	ret

0000000000080858 <exc_handler>:
   80858:	a9bd7bfd 	stp	x29, x30, [sp, #-48]!
   8085c:	910003fd 	mov	x29, sp
   80860:	f90017e0 	str	x0, [sp, #40]
   80864:	f90013e1 	str	x1, [sp, #32]
   80868:	f9000fe2 	str	x2, [sp, #24]
   8086c:	f9000be3 	str	x3, [sp, #16]
   80870:	f94017e0 	ldr	x0, [sp, #40]
   80874:	d35afc00 	lsr	x0, x0, #26
   80878:	91000000 	add	x0, x0, #0x0
   8087c:	f100b01f 	cmp	x0, #0x2c
   80880:	540006a8 	b.hi	80954 <exc_handler+0xfc>  // b.pmore
   80884:	7100b01f 	cmp	w0, #0x2c
   80888:	54000668 	b.hi	80954 <exc_handler+0xfc>  // b.pmore
   8088c:	b0000021 	adrp	x1, 85000 <exception_handler+0x70>
   80890:	91157021 	add	x1, x1, #0x55c
   80894:	b8605820 	ldr	w0, [x1, w0, uxtw #2]
   80898:	10000061 	adr	x1, 808a4 <exc_handler+0x4c>
   8089c:	8b20c820 	add	x0, x1, w0, sxtw #2
   808a0:	d61f0000 	br	x0
   808a4:	b0000020 	adrp	x0, 85000 <exception_handler+0x70>
   808a8:	910de000 	add	x0, x0, #0x378
   808ac:	94000bf7 	bl	83888 <uart_puts>
   808b0:	1400002d 	b	80964 <exc_handler+0x10c>
   808b4:	b0000020 	adrp	x0, 85000 <exception_handler+0x70>
   808b8:	910e0000 	add	x0, x0, #0x380
   808bc:	94000bf3 	bl	83888 <uart_puts>
   808c0:	14000029 	b	80964 <exc_handler+0x10c>
   808c4:	b0000020 	adrp	x0, 85000 <exception_handler+0x70>
   808c8:	910e4000 	add	x0, x0, #0x390
   808cc:	94000bef 	bl	83888 <uart_puts>
   808d0:	14000025 	b	80964 <exc_handler+0x10c>
   808d4:	b0000020 	adrp	x0, 85000 <exception_handler+0x70>
   808d8:	910ea000 	add	x0, x0, #0x3a8
   808dc:	94000beb 	bl	83888 <uart_puts>
   808e0:	14000021 	b	80964 <exc_handler+0x10c>
   808e4:	b0000020 	adrp	x0, 85000 <exception_handler+0x70>
   808e8:	910ee000 	add	x0, x0, #0x3b8
   808ec:	94000be7 	bl	83888 <uart_puts>
   808f0:	1400001d 	b	80964 <exc_handler+0x10c>
   808f4:	b0000020 	adrp	x0, 85000 <exception_handler+0x70>
   808f8:	910f6000 	add	x0, x0, #0x3d8
   808fc:	94000be3 	bl	83888 <uart_puts>
   80900:	14000019 	b	80964 <exc_handler+0x10c>
   80904:	b0000020 	adrp	x0, 85000 <exception_handler+0x70>
   80908:	910fe000 	add	x0, x0, #0x3f8
   8090c:	94000bdf 	bl	83888 <uart_puts>
   80910:	14000015 	b	80964 <exc_handler+0x10c>
   80914:	b0000020 	adrp	x0, 85000 <exception_handler+0x70>
   80918:	91106000 	add	x0, x0, #0x418
   8091c:	94000bdb 	bl	83888 <uart_puts>
   80920:	14000011 	b	80964 <exc_handler+0x10c>
   80924:	b0000020 	adrp	x0, 85000 <exception_handler+0x70>
   80928:	9110c000 	add	x0, x0, #0x430
   8092c:	94000bd7 	bl	83888 <uart_puts>
   80930:	1400000d 	b	80964 <exc_handler+0x10c>
   80934:	b0000020 	adrp	x0, 85000 <exception_handler+0x70>
   80938:	91112000 	add	x0, x0, #0x448
   8093c:	94000bd3 	bl	83888 <uart_puts>
   80940:	14000009 	b	80964 <exc_handler+0x10c>
   80944:	b0000020 	adrp	x0, 85000 <exception_handler+0x70>
   80948:	91118000 	add	x0, x0, #0x460
   8094c:	94000bcf 	bl	83888 <uart_puts>
   80950:	14000005 	b	80964 <exc_handler+0x10c>
   80954:	b0000020 	adrp	x0, 85000 <exception_handler+0x70>
   80958:	910de000 	add	x0, x0, #0x378
   8095c:	94000bcb 	bl	83888 <uart_puts>
   80960:	d503201f 	nop
   80964:	f94017e0 	ldr	x0, [sp, #40]
   80968:	92400400 	and	x0, x0, #0x3
   8096c:	f1000c1f 	cmp	x0, #0x3
   80970:	54000300 	b.eq	809d0 <exc_handler+0x178>  // b.none
   80974:	f1000c1f 	cmp	x0, #0x3
   80978:	54000348 	b.hi	809e0 <exc_handler+0x188>  // b.pmore
   8097c:	f100081f 	cmp	x0, #0x2
   80980:	54000200 	b.eq	809c0 <exc_handler+0x168>  // b.none
   80984:	f100081f 	cmp	x0, #0x2
   80988:	540002c8 	b.hi	809e0 <exc_handler+0x188>  // b.pmore
   8098c:	f100001f 	cmp	x0, #0x0
   80990:	54000080 	b.eq	809a0 <exc_handler+0x148>  // b.none
   80994:	f100041f 	cmp	x0, #0x1
   80998:	540000c0 	b.eq	809b0 <exc_handler+0x158>  // b.none
   8099c:	14000011 	b	809e0 <exc_handler+0x188>
   809a0:	b0000020 	adrp	x0, 85000 <exception_handler+0x70>
   809a4:	9111c000 	add	x0, x0, #0x470
   809a8:	94000bb8 	bl	83888 <uart_puts>
   809ac:	1400000d 	b	809e0 <exc_handler+0x188>
   809b0:	b0000020 	adrp	x0, 85000 <exception_handler+0x70>
   809b4:	91120000 	add	x0, x0, #0x480
   809b8:	94000bb4 	bl	83888 <uart_puts>
   809bc:	14000009 	b	809e0 <exc_handler+0x188>
   809c0:	b0000020 	adrp	x0, 85000 <exception_handler+0x70>
   809c4:	91124000 	add	x0, x0, #0x490
   809c8:	94000bb0 	bl	83888 <uart_puts>
   809cc:	14000005 	b	809e0 <exc_handler+0x188>
   809d0:	b0000020 	adrp	x0, 85000 <exception_handler+0x70>
   809d4:	91128000 	add	x0, x0, #0x4a0
   809d8:	94000bac 	bl	83888 <uart_puts>
   809dc:	d503201f 	nop
   809e0:	f94017e0 	ldr	x0, [sp, #40]
   809e4:	d35afc00 	lsr	x0, x0, #26
   809e8:	f100901f 	cmp	x0, #0x24
   809ec:	540000a0 	b.eq	80a00 <exc_handler+0x1a8>  // b.none
   809f0:	f94017e0 	ldr	x0, [sp, #40]
   809f4:	d35afc00 	lsr	x0, x0, #26
   809f8:	f100941f 	cmp	x0, #0x25
   809fc:	54000861 	b.ne	80b08 <exc_handler+0x2b0>  // b.any
   80a00:	b0000020 	adrp	x0, 85000 <exception_handler+0x70>
   80a04:	9112c000 	add	x0, x0, #0x4b0
   80a08:	94000ba0 	bl	83888 <uart_puts>
   80a0c:	f94017e0 	ldr	x0, [sp, #40]
   80a10:	d342fc00 	lsr	x0, x0, #2
   80a14:	92400400 	and	x0, x0, #0x3
   80a18:	f1000c1f 	cmp	x0, #0x3
   80a1c:	54000300 	b.eq	80a7c <exc_handler+0x224>  // b.none
   80a20:	f1000c1f 	cmp	x0, #0x3
   80a24:	54000348 	b.hi	80a8c <exc_handler+0x234>  // b.pmore
   80a28:	f100081f 	cmp	x0, #0x2
   80a2c:	54000200 	b.eq	80a6c <exc_handler+0x214>  // b.none
   80a30:	f100081f 	cmp	x0, #0x2
   80a34:	540002c8 	b.hi	80a8c <exc_handler+0x234>  // b.pmore
   80a38:	f100001f 	cmp	x0, #0x0
   80a3c:	54000080 	b.eq	80a4c <exc_handler+0x1f4>  // b.none
   80a40:	f100041f 	cmp	x0, #0x1
   80a44:	540000c0 	b.eq	80a5c <exc_handler+0x204>  // b.none
   80a48:	14000011 	b	80a8c <exc_handler+0x234>
   80a4c:	b0000020 	adrp	x0, 85000 <exception_handler+0x70>
   80a50:	9112e000 	add	x0, x0, #0x4b8
   80a54:	94000b8d 	bl	83888 <uart_puts>
   80a58:	1400000d 	b	80a8c <exc_handler+0x234>
   80a5c:	b0000020 	adrp	x0, 85000 <exception_handler+0x70>
   80a60:	91134000 	add	x0, x0, #0x4d0
   80a64:	94000b89 	bl	83888 <uart_puts>
   80a68:	14000009 	b	80a8c <exc_handler+0x234>
   80a6c:	b0000020 	adrp	x0, 85000 <exception_handler+0x70>
   80a70:	9113a000 	add	x0, x0, #0x4e8
   80a74:	94000b85 	bl	83888 <uart_puts>
   80a78:	14000005 	b	80a8c <exc_handler+0x234>
   80a7c:	b0000020 	adrp	x0, 85000 <exception_handler+0x70>
   80a80:	91140000 	add	x0, x0, #0x500
   80a84:	94000b81 	bl	83888 <uart_puts>
   80a88:	d503201f 	nop
   80a8c:	f94017e0 	ldr	x0, [sp, #40]
   80a90:	92400400 	and	x0, x0, #0x3
   80a94:	f1000c1f 	cmp	x0, #0x3
   80a98:	54000300 	b.eq	80af8 <exc_handler+0x2a0>  // b.none
   80a9c:	f1000c1f 	cmp	x0, #0x3
   80aa0:	54000348 	b.hi	80b08 <exc_handler+0x2b0>  // b.pmore
   80aa4:	f100081f 	cmp	x0, #0x2
   80aa8:	54000200 	b.eq	80ae8 <exc_handler+0x290>  // b.none
   80aac:	f100081f 	cmp	x0, #0x2
   80ab0:	540002c8 	b.hi	80b08 <exc_handler+0x2b0>  // b.pmore
   80ab4:	f100001f 	cmp	x0, #0x0
   80ab8:	54000080 	b.eq	80ac8 <exc_handler+0x270>  // b.none
   80abc:	f100041f 	cmp	x0, #0x1
   80ac0:	540000c0 	b.eq	80ad8 <exc_handler+0x280>  // b.none
   80ac4:	14000011 	b	80b08 <exc_handler+0x2b0>
   80ac8:	b0000020 	adrp	x0, 85000 <exception_handler+0x70>
   80acc:	9111c000 	add	x0, x0, #0x470
   80ad0:	94000b6e 	bl	83888 <uart_puts>
   80ad4:	1400000d 	b	80b08 <exc_handler+0x2b0>
   80ad8:	b0000020 	adrp	x0, 85000 <exception_handler+0x70>
   80adc:	91120000 	add	x0, x0, #0x480
   80ae0:	94000b6a 	bl	83888 <uart_puts>
   80ae4:	14000009 	b	80b08 <exc_handler+0x2b0>
   80ae8:	b0000020 	adrp	x0, 85000 <exception_handler+0x70>
   80aec:	91124000 	add	x0, x0, #0x490
   80af0:	94000b66 	bl	83888 <uart_puts>
   80af4:	14000005 	b	80b08 <exc_handler+0x2b0>
   80af8:	b0000020 	adrp	x0, 85000 <exception_handler+0x70>
   80afc:	91128000 	add	x0, x0, #0x4a0
   80b00:	94000b62 	bl	83888 <uart_puts>
   80b04:	d503201f 	nop
   80b08:	b0000020 	adrp	x0, 85000 <exception_handler+0x70>
   80b0c:	91146000 	add	x0, x0, #0x518
   80b10:	94000b5e 	bl	83888 <uart_puts>
   80b14:	f94017e0 	ldr	x0, [sp, #40]
   80b18:	d360fc00 	lsr	x0, x0, #32
   80b1c:	94000b72 	bl	838e4 <uart_hex>
   80b20:	f94017e0 	ldr	x0, [sp, #40]
   80b24:	94000b70 	bl	838e4 <uart_hex>
   80b28:	b0000020 	adrp	x0, 85000 <exception_handler+0x70>
   80b2c:	9114a000 	add	x0, x0, #0x528
   80b30:	94000b56 	bl	83888 <uart_puts>
   80b34:	f94013e0 	ldr	x0, [sp, #32]
   80b38:	d360fc00 	lsr	x0, x0, #32
   80b3c:	94000b6a 	bl	838e4 <uart_hex>
   80b40:	f94013e0 	ldr	x0, [sp, #32]
   80b44:	94000b68 	bl	838e4 <uart_hex>
   80b48:	b0000020 	adrp	x0, 85000 <exception_handler+0x70>
   80b4c:	9114e000 	add	x0, x0, #0x538
   80b50:	94000b4e 	bl	83888 <uart_puts>
   80b54:	f9400fe0 	ldr	x0, [sp, #24]
   80b58:	d360fc00 	lsr	x0, x0, #32
   80b5c:	94000b62 	bl	838e4 <uart_hex>
   80b60:	f9400fe0 	ldr	x0, [sp, #24]
   80b64:	94000b60 	bl	838e4 <uart_hex>
   80b68:	b0000020 	adrp	x0, 85000 <exception_handler+0x70>
   80b6c:	91152000 	add	x0, x0, #0x548
   80b70:	94000b46 	bl	83888 <uart_puts>
   80b74:	f9400be0 	ldr	x0, [sp, #16]
   80b78:	d360fc00 	lsr	x0, x0, #32
   80b7c:	94000b5a 	bl	838e4 <uart_hex>
   80b80:	f9400be0 	ldr	x0, [sp, #16]
   80b84:	94000b58 	bl	838e4 <uart_hex>
   80b88:	b0000020 	adrp	x0, 85000 <exception_handler+0x70>
   80b8c:	91156000 	add	x0, x0, #0x558
   80b90:	94000b3e 	bl	83888 <uart_puts>
   80b94:	d503201f 	nop
   80b98:	17ffffff 	b	80b94 <exc_handler+0x33c>

0000000000080b9c <syscall_handler>:
   80b9c:	a9bd7bfd 	stp	x29, x30, [sp, #-48]!
   80ba0:	910003fd 	mov	x29, sp
   80ba4:	f9000fe0 	str	x0, [sp, #24]
   80ba8:	f9400fe0 	ldr	x0, [sp, #24]
   80bac:	f9402000 	ldr	x0, [x0, #64]
   80bb0:	b9002fe0 	str	w0, [sp, #44]
   80bb4:	b9402fe0 	ldr	w0, [sp, #44]
   80bb8:	7100001f 	cmp	w0, #0x0
   80bbc:	5400020b 	b.lt	80bfc <syscall_handler+0x60>  // b.tstop
   80bc0:	b9402fe0 	ldr	w0, [sp, #44]
   80bc4:	7100141f 	cmp	w0, #0x5
   80bc8:	540001ac 	b.gt	80bfc <syscall_handler+0x60>
   80bcc:	b0000020 	adrp	x0, 85000 <exception_handler+0x70>
   80bd0:	91302000 	add	x0, x0, #0xc08
   80bd4:	b9802fe1 	ldrsw	x1, [sp, #44]
   80bd8:	f8617801 	ldr	x1, [x0, x1, lsl #3]
   80bdc:	f9400fe0 	ldr	x0, [sp, #24]
   80be0:	d63f0020 	blr	x1
   80be4:	7100001f 	cmp	w0, #0x0
   80be8:	54000100 	b.eq	80c08 <syscall_handler+0x6c>  // b.none
   80bec:	b0000020 	adrp	x0, 85000 <exception_handler+0x70>
   80bf0:	91184000 	add	x0, x0, #0x610
   80bf4:	94000b25 	bl	83888 <uart_puts>
   80bf8:	14000004 	b	80c08 <syscall_handler+0x6c>
   80bfc:	b0000020 	adrp	x0, 85000 <exception_handler+0x70>
   80c00:	9118a000 	add	x0, x0, #0x628
   80c04:	94000b21 	bl	83888 <uart_puts>
   80c08:	d503201f 	nop
   80c0c:	a8c37bfd 	ldp	x29, x30, [sp], #48
   80c10:	d65f03c0 	ret

0000000000080c14 <svc_handler>:
   80c14:	a9b37bfd 	stp	x29, x30, [sp, #-208]!
   80c18:	910003fd 	mov	x29, sp
   80c1c:	f9001fe0 	str	x0, [sp, #56]
   80c20:	f9001be1 	str	x1, [sp, #48]
   80c24:	f90017e2 	str	x2, [sp, #40]
   80c28:	f90013e3 	str	x3, [sp, #32]
   80c2c:	f9000fe4 	str	x4, [sp, #24]
   80c30:	f9401fe0 	ldr	x0, [sp, #56]
   80c34:	12003c00 	and	w0, w0, #0xffff
   80c38:	b900cfe0 	str	w0, [sp, #204]
   80c3c:	f9401fe0 	ldr	x0, [sp, #56]
   80c40:	d35afc00 	lsr	x0, x0, #26
   80c44:	f100541f 	cmp	x0, #0x15
   80c48:	54000140 	b.eq	80c70 <svc_handler+0x5c>  // b.none
   80c4c:	b0000020 	adrp	x0, 85000 <exception_handler+0x70>
   80c50:	91190000 	add	x0, x0, #0x640
   80c54:	94000b0d 	bl	83888 <uart_puts>
   80c58:	f94013e3 	ldr	x3, [sp, #32]
   80c5c:	f94017e2 	ldr	x2, [sp, #40]
   80c60:	f9401be1 	ldr	x1, [sp, #48]
   80c64:	f9401fe0 	ldr	x0, [sp, #56]
   80c68:	97fffefc 	bl	80858 <exc_handler>
   80c6c:	14000049 	b	80d90 <svc_handler+0x17c>
   80c70:	b940cfe0 	ldr	w0, [sp, #204]
   80c74:	71000c1f 	cmp	w0, #0x3
   80c78:	54000480 	b.eq	80d08 <svc_handler+0xf4>  // b.none
   80c7c:	b940cfe0 	ldr	w0, [sp, #204]
   80c80:	71000c1f 	cmp	w0, #0x3
   80c84:	5400074c 	b.gt	80d6c <svc_handler+0x158>
   80c88:	b940cfe0 	ldr	w0, [sp, #204]
   80c8c:	7100081f 	cmp	w0, #0x2
   80c90:	54000320 	b.eq	80cf4 <svc_handler+0xe0>  // b.none
   80c94:	b940cfe0 	ldr	w0, [sp, #204]
   80c98:	7100081f 	cmp	w0, #0x2
   80c9c:	5400068c 	b.gt	80d6c <svc_handler+0x158>
   80ca0:	b940cfe0 	ldr	w0, [sp, #204]
   80ca4:	7100001f 	cmp	w0, #0x0
   80ca8:	540000a0 	b.eq	80cbc <svc_handler+0xa8>  // b.none
   80cac:	b940cfe0 	ldr	w0, [sp, #204]
   80cb0:	7100041f 	cmp	w0, #0x1
   80cb4:	540000a0 	b.eq	80cc8 <svc_handler+0xb4>  // b.none
   80cb8:	1400002d 	b	80d6c <svc_handler+0x158>
   80cbc:	f9400fe0 	ldr	x0, [sp, #24]
   80cc0:	97ffffb7 	bl	80b9c <syscall_handler>
   80cc4:	14000033 	b	80d90 <svc_handler+0x17c>
   80cc8:	b0000020 	adrp	x0, 85000 <exception_handler+0x70>
   80ccc:	91194000 	add	x0, x0, #0x650
   80cd0:	94000aee 	bl	83888 <uart_puts>
   80cd4:	b0000020 	adrp	x0, 85000 <exception_handler+0x70>
   80cd8:	9119a000 	add	x0, x0, #0x668
   80cdc:	94000aeb 	bl	83888 <uart_puts>
   80ce0:	910203e0 	add	x0, sp, #0x80
   80ce4:	9400052a 	bl	8218c <shell_input>
   80ce8:	910203e0 	add	x0, sp, #0x80
   80cec:	940001c8 	bl	8140c <initrd_usr_prog>
   80cf0:	14000028 	b	80d90 <svc_handler+0x17c>
   80cf4:	b0000020 	adrp	x0, 85000 <exception_handler+0x70>
   80cf8:	9119c000 	add	x0, x0, #0x670
   80cfc:	94000ae3 	bl	83888 <uart_puts>
   80d00:	9400114c 	bl	85230 <core_timer_enable>
   80d04:	14000023 	b	80d90 <svc_handler+0x17c>
   80d08:	b0000020 	adrp	x0, 85000 <exception_handler+0x70>
   80d0c:	911a2000 	add	x0, x0, #0x688
   80d10:	94000ade 	bl	83888 <uart_puts>
   80d14:	b0000020 	adrp	x0, 85000 <exception_handler+0x70>
   80d18:	911a8000 	add	x0, x0, #0x6a0
   80d1c:	94000adb 	bl	83888 <uart_puts>
   80d20:	910203e0 	add	x0, sp, #0x80
   80d24:	9400051a 	bl	8218c <shell_input>
   80d28:	910203e0 	add	x0, sp, #0x80
   80d2c:	94000837 	bl	82e08 <atoi>
   80d30:	93407c00 	sxtw	x0, w0
   80d34:	f90063e0 	str	x0, [sp, #192]
   80d38:	b0000020 	adrp	x0, 85000 <exception_handler+0x70>
   80d3c:	911ac000 	add	x0, x0, #0x6b0
   80d40:	94000ad2 	bl	83888 <uart_puts>
   80d44:	910103e0 	add	x0, sp, #0x40
   80d48:	94000511 	bl	8218c <shell_input>
   80d4c:	b0000020 	adrp	x0, 85000 <exception_handler+0x70>
   80d50:	91156000 	add	x0, x0, #0x558
   80d54:	94000acd 	bl	83888 <uart_puts>
   80d58:	910103e0 	add	x0, sp, #0x40
   80d5c:	aa0003e1 	mov	x1, x0
   80d60:	f94063e0 	ldr	x0, [sp, #192]
   80d64:	94000985 	bl	83378 <timer_set>
   80d68:	1400000a 	b	80d90 <svc_handler+0x17c>
   80d6c:	b0000020 	adrp	x0, 85000 <exception_handler+0x70>
   80d70:	911b0000 	add	x0, x0, #0x6c0
   80d74:	94000ac5 	bl	83888 <uart_puts>
   80d78:	f94013e3 	ldr	x3, [sp, #32]
   80d7c:	f94017e2 	ldr	x2, [sp, #40]
   80d80:	f9401be1 	ldr	x1, [sp, #48]
   80d84:	f9401fe0 	ldr	x0, [sp, #56]
   80d88:	97fffeb4 	bl	80858 <exc_handler>
   80d8c:	d503201f 	nop
   80d90:	a8cd7bfd 	ldp	x29, x30, [sp], #208
   80d94:	d65f03c0 	ret

0000000000080d98 <uart_interrupt_handler>:
   80d98:	a9be7bfd 	stp	x29, x30, [sp, #-32]!
   80d9c:	910003fd 	mov	x29, sp
   80da0:	d28a0900 	mov	x0, #0x5048                	// #20552
   80da4:	f2a7e420 	movk	x0, #0x3f21, lsl #16
   80da8:	b9400000 	ldr	w0, [x0]
   80dac:	121f0000 	and	w0, w0, #0x2
   80db0:	7100001f 	cmp	w0, #0x0
   80db4:	540000a0 	b.eq	80dc8 <uart_interrupt_handler+0x30>  // b.none
   80db8:	b0000020 	adrp	x0, 85000 <exception_handler+0x70>
   80dbc:	911ba000 	add	x0, x0, #0x6e8
   80dc0:	94000ab2 	bl	83888 <uart_puts>
   80dc4:	1400002a 	b	80e6c <uart_interrupt_handler+0xd4>
   80dc8:	d28a0900 	mov	x0, #0x5048                	// #20552
   80dcc:	f2a7e420 	movk	x0, #0x3f21, lsl #16
   80dd0:	b9400000 	ldr	w0, [x0]
   80dd4:	121e0000 	and	w0, w0, #0x4
   80dd8:	7100001f 	cmp	w0, #0x0
   80ddc:	54000420 	b.eq	80e60 <uart_interrupt_handler+0xc8>  // b.none
   80de0:	d28a0a80 	mov	x0, #0x5054                	// #20564
   80de4:	f2a7e420 	movk	x0, #0x3f21, lsl #16
   80de8:	b9400000 	ldr	w0, [x0]
   80dec:	12000000 	and	w0, w0, #0x1
   80df0:	7100001f 	cmp	w0, #0x0
   80df4:	540002e0 	b.eq	80e50 <uart_interrupt_handler+0xb8>  // b.none
   80df8:	d28a0800 	mov	x0, #0x5040                	// #20544
   80dfc:	f2a7e420 	movk	x0, #0x3f21, lsl #16
   80e00:	b9400000 	ldr	w0, [x0]
   80e04:	39007fe0 	strb	w0, [sp, #31]
   80e08:	39407fe0 	ldrb	w0, [sp, #31]
   80e0c:	7100341f 	cmp	w0, #0xd
   80e10:	54000060 	b.eq	80e1c <uart_interrupt_handler+0x84>  // b.none
   80e14:	39407fe0 	ldrb	w0, [sp, #31]
   80e18:	14000002 	b	80e20 <uart_interrupt_handler+0x88>
   80e1c:	52800140 	mov	w0, #0xa                   	// #10
   80e20:	39007fe0 	strb	w0, [sp, #31]
   80e24:	d28a0a80 	mov	x0, #0x5054                	// #20564
   80e28:	f2a7e420 	movk	x0, #0x3f21, lsl #16
   80e2c:	b9400000 	ldr	w0, [x0]
   80e30:	121b0000 	and	w0, w0, #0x20
   80e34:	7100001f 	cmp	w0, #0x0
   80e38:	540001a0 	b.eq	80e6c <uart_interrupt_handler+0xd4>  // b.none
   80e3c:	d28a0800 	mov	x0, #0x5040                	// #20544
   80e40:	f2a7e420 	movk	x0, #0x3f21, lsl #16
   80e44:	39407fe1 	ldrb	w1, [sp, #31]
   80e48:	b9000001 	str	w1, [x0]
   80e4c:	14000008 	b	80e6c <uart_interrupt_handler+0xd4>
   80e50:	b0000020 	adrp	x0, 85000 <exception_handler+0x70>
   80e54:	911ca000 	add	x0, x0, #0x728
   80e58:	94000a8c 	bl	83888 <uart_puts>
   80e5c:	14000004 	b	80e6c <uart_interrupt_handler+0xd4>
   80e60:	b0000020 	adrp	x0, 85000 <exception_handler+0x70>
   80e64:	911ca000 	add	x0, x0, #0x728
   80e68:	94000a88 	bl	83888 <uart_puts>
   80e6c:	d503201f 	nop
   80e70:	a8c27bfd 	ldp	x29, x30, [sp], #32
   80e74:	d65f03c0 	ret

0000000000080e78 <irq_router>:
   80e78:	a9bc7bfd 	stp	x29, x30, [sp, #-64]!
   80e7c:	910003fd 	mov	x29, sp
   80e80:	f90017e0 	str	x0, [sp, #40]
   80e84:	f90013e1 	str	x1, [sp, #32]
   80e88:	f9000fe2 	str	x2, [sp, #24]
   80e8c:	f9000be3 	str	x3, [sp, #16]
   80e90:	d2800c00 	mov	x0, #0x60                  	// #96
   80e94:	f2a80000 	movk	x0, #0x4000, lsl #16
   80e98:	b9400000 	ldr	w0, [x0]
   80e9c:	b9003fe0 	str	w0, [sp, #60]
   80ea0:	d2964080 	mov	x0, #0xb204                	// #45572
   80ea4:	f2a7e000 	movk	x0, #0x3f00, lsl #16
   80ea8:	b9400000 	ldr	w0, [x0]
   80eac:	b9003be0 	str	w0, [sp, #56]
   80eb0:	b9403fe0 	ldr	w0, [sp, #60]
   80eb4:	121f0000 	and	w0, w0, #0x2
   80eb8:	7100001f 	cmp	w0, #0x0
   80ebc:	54000060 	b.eq	80ec8 <irq_router+0x50>  // b.none
   80ec0:	94000018 	bl	80f20 <core_timer_handler>
   80ec4:	14000006 	b	80edc <irq_router+0x64>
   80ec8:	b9403be0 	ldr	w0, [sp, #56]
   80ecc:	12030000 	and	w0, w0, #0x20000000
   80ed0:	7100001f 	cmp	w0, #0x0
   80ed4:	54000040 	b.eq	80edc <irq_router+0x64>  // b.none
   80ed8:	97ffffb0 	bl	80d98 <uart_interrupt_handler>
   80edc:	d503201f 	nop
   80ee0:	a8c47bfd 	ldp	x29, x30, [sp], #64
   80ee4:	d65f03c0 	ret

0000000000080ee8 <do_timer>:
   80ee8:	a9bf7bfd 	stp	x29, x30, [sp, #-16]!
   80eec:	910003fd 	mov	x29, sp
   80ef0:	940010bb 	bl	851dc <get_current>
   80ef4:	f9400801 	ldr	x1, [x0, #16]
   80ef8:	d1000421 	sub	x1, x1, #0x1
   80efc:	f9000801 	str	x1, [x0, #16]
   80f00:	f9400800 	ldr	x0, [x0, #16]
   80f04:	f100001f 	cmp	x0, #0x0
   80f08:	5400006c 	b.gt	80f14 <do_timer+0x2c>
   80f0c:	940003fd 	bl	81f00 <schedule>
   80f10:	14000002 	b	80f18 <do_timer+0x30>
   80f14:	d503201f 	nop
   80f18:	a8c17bfd 	ldp	x29, x30, [sp], #16
   80f1c:	d65f03c0 	ret

0000000000080f20 <core_timer_handler>:
   80f20:	a9be7bfd 	stp	x29, x30, [sp, #-32]!
   80f24:	910003fd 	mov	x29, sp
   80f28:	d53be020 	mrs	x0, cntpct_el0
   80f2c:	d53be001 	mrs	x1, cntfrq_el0
   80f30:	9ac10800 	udiv	x0, x0, x1
   80f34:	b9001fe0 	str	w0, [sp, #28]
   80f38:	d53be000 	mrs	x0, cntfrq_el0
   80f3c:	d2800021 	mov	x1, #0x1                   	// #1
   80f40:	9b017c00 	mul	x0, x0, x1
   80f44:	d51be200 	msr	cntp_tval_el0, x0
   80f48:	94000960 	bl	834c8 <timer_update>
   80f4c:	97ffffe7 	bl	80ee8 <do_timer>
   80f50:	d503201f 	nop
   80f54:	a8c27bfd 	ldp	x29, x30, [sp], #32
   80f58:	d65f03c0 	ret

0000000000080f5c <print_current_el>:
   80f5c:	a9be7bfd 	stp	x29, x30, [sp, #-32]!
   80f60:	910003fd 	mov	x29, sp
   80f64:	d5384240 	mrs	x0, currentel
   80f68:	f9000fe0 	str	x0, [sp, #24]
   80f6c:	b0000020 	adrp	x0, 85000 <exception_handler+0x70>
   80f70:	911d0000 	add	x0, x0, #0x740
   80f74:	94000a45 	bl	83888 <uart_puts>
   80f78:	f9400fe0 	ldr	x0, [sp, #24]
   80f7c:	d342fc00 	lsr	x0, x0, #2
   80f80:	12000400 	and	w0, w0, #0x3
   80f84:	94000a58 	bl	838e4 <uart_hex>
   80f88:	b0000020 	adrp	x0, 85000 <exception_handler+0x70>
   80f8c:	91156000 	add	x0, x0, #0x558
   80f90:	94000a3e 	bl	83888 <uart_puts>
   80f94:	d503201f 	nop
   80f98:	a8c27bfd 	ldp	x29, x30, [sp], #32
   80f9c:	d65f03c0 	ret

0000000000080fa0 <do_exec>:
   80fa0:	a9be7bfd 	stp	x29, x30, [sp, #-32]!
   80fa4:	910003fd 	mov	x29, sp
   80fa8:	f9000fe0 	str	x0, [sp, #24]
   80fac:	9400108c 	bl	851dc <get_current>
   80fb0:	b9400000 	ldr	w0, [x0]
   80fb4:	2a0003e0 	mov	w0, w0
   80fb8:	d374cc00 	lsl	x0, x0, #12
   80fbc:	913fc001 	add	x1, x0, #0xff0
   80fc0:	90000240 	adrp	x0, c8000 <kstack_pool+0x3ff20>
   80fc4:	91038000 	add	x0, x0, #0xe0
   80fc8:	8b000021 	add	x1, x1, x0
   80fcc:	f9400fe0 	ldr	x0, [sp, #24]
   80fd0:	d2800000 	mov	x0, #0x0                   	// #0
   80fd4:	d5184000 	msr	spsr_el1, x0
   80fd8:	aa0003e0 	mov	x0, x0
   80fdc:	d5184020 	msr	elr_el1, x0
   80fe0:	aa0103e0 	mov	x0, x1
   80fe4:	d5184100 	msr	sp_el0, x0
   80fe8:	d69f03e0 	eret
   80fec:	d503201f 	nop
   80ff0:	a8c27bfd 	ldp	x29, x30, [sp], #32
   80ff4:	d65f03c0 	ret

0000000000080ff8 <readfile>:
   80ff8:	a9be7bfd 	stp	x29, x30, [sp, #-32]!
   80ffc:	910003fd 	mov	x29, sp
   81000:	f9000fe0 	str	x0, [sp, #24]
   81004:	f9000be1 	str	x1, [sp, #16]
   81008:	14000006 	b	81020 <readfile+0x28>
   8100c:	f9400fe0 	ldr	x0, [sp, #24]
   81010:	91000401 	add	x1, x0, #0x1
   81014:	f9000fe1 	str	x1, [sp, #24]
   81018:	39400000 	ldrb	w0, [x0]
   8101c:	940009f7 	bl	837f8 <uart_send>
   81020:	f9400be0 	ldr	x0, [sp, #16]
   81024:	d1000401 	sub	x1, x0, #0x1
   81028:	f9000be1 	str	x1, [sp, #16]
   8102c:	f100001f 	cmp	x0, #0x0
   81030:	54fffee1 	b.ne	8100c <readfile+0x14>  // b.any
   81034:	d503201f 	nop
   81038:	d503201f 	nop
   8103c:	a8c27bfd 	ldp	x29, x30, [sp], #32
   81040:	d65f03c0 	ret

0000000000081044 <initrd_list>:
   81044:	a9bd7bfd 	stp	x29, x30, [sp, #-48]!
   81048:	910003fd 	mov	x29, sp
   8104c:	90000020 	adrp	x0, 85000 <exception_handler+0x70>
   81050:	91312000 	add	x0, x0, #0xc48
   81054:	f9400000 	ldr	x0, [x0]
   81058:	f90017e0 	str	x0, [sp, #40]
   8105c:	528000c2 	mov	w2, #0x6                   	// #6
   81060:	90000020 	adrp	x0, 85000 <exception_handler+0x70>
   81064:	911d4001 	add	x1, x0, #0x750
   81068:	f94017e0 	ldr	x0, [sp, #40]
   8106c:	94000715 	bl	82cc0 <memcmp>
   81070:	7100001f 	cmp	w0, #0x0
   81074:	54000a01 	b.ne	811b4 <initrd_list+0x170>  // b.any
   81078:	90000020 	adrp	x0, 85000 <exception_handler+0x70>
   8107c:	911d6000 	add	x0, x0, #0x758
   81080:	94000a02 	bl	83888 <uart_puts>
   81084:	1400003b 	b	81170 <initrd_list+0x12c>
   81088:	f94017e0 	ldr	x0, [sp, #40]
   8108c:	f90013e0 	str	x0, [sp, #32]
   81090:	f94013e0 	ldr	x0, [sp, #32]
   81094:	91017800 	add	x0, x0, #0x5e
   81098:	52800101 	mov	w1, #0x8                   	// #8
   8109c:	940006a6 	bl	82b34 <hex2bin>
   810a0:	b9001fe0 	str	w0, [sp, #28]
   810a4:	f94013e0 	ldr	x0, [sp, #32]
   810a8:	9100d800 	add	x0, x0, #0x36
   810ac:	52800101 	mov	w1, #0x8                   	// #8
   810b0:	940006a1 	bl	82b34 <hex2bin>
   810b4:	b9001be0 	str	w0, [sp, #24]
   810b8:	f94013e0 	ldr	x0, [sp, #32]
   810bc:	91003800 	add	x0, x0, #0xe
   810c0:	52800101 	mov	w1, #0x8                   	// #8
   810c4:	9400069c 	bl	82b34 <hex2bin>
   810c8:	94000a07 	bl	838e4 <uart_hex>
   810cc:	52800400 	mov	w0, #0x20                  	// #32
   810d0:	940009ca 	bl	837f8 <uart_send>
   810d4:	f94017e0 	ldr	x0, [sp, #40]
   810d8:	2a0003e1 	mov	w1, w0
   810dc:	b9401fe0 	ldr	w0, [sp, #28]
   810e0:	0b000020 	add	w0, w1, w0
   810e4:	1101b800 	add	w0, w0, #0x6e
   810e8:	940009ff 	bl	838e4 <uart_hex>
   810ec:	52800400 	mov	w0, #0x20                  	// #32
   810f0:	940009c2 	bl	837f8 <uart_send>
   810f4:	b9401be0 	ldr	w0, [sp, #24]
   810f8:	940009fb 	bl	838e4 <uart_hex>
   810fc:	52800400 	mov	w0, #0x20                  	// #32
   81100:	940009be 	bl	837f8 <uart_send>
   81104:	f94013e0 	ldr	x0, [sp, #32]
   81108:	91005800 	add	x0, x0, #0x16
   8110c:	52800101 	mov	w1, #0x8                   	// #8
   81110:	94000689 	bl	82b34 <hex2bin>
   81114:	940009f4 	bl	838e4 <uart_hex>
   81118:	528005c0 	mov	w0, #0x2e                  	// #46
   8111c:	940009b7 	bl	837f8 <uart_send>
   81120:	f94013e0 	ldr	x0, [sp, #32]
   81124:	91007800 	add	x0, x0, #0x1e
   81128:	52800101 	mov	w1, #0x8                   	// #8
   8112c:	94000682 	bl	82b34 <hex2bin>
   81130:	940009ed 	bl	838e4 <uart_hex>
   81134:	52800120 	mov	w0, #0x9                   	// #9
   81138:	940009b0 	bl	837f8 <uart_send>
   8113c:	f94017e0 	ldr	x0, [sp, #40]
   81140:	9101b800 	add	x0, x0, #0x6e
   81144:	940009d1 	bl	83888 <uart_puts>
   81148:	90000020 	adrp	x0, 85000 <exception_handler+0x70>
   8114c:	911e4000 	add	x0, x0, #0x790
   81150:	940009ce 	bl	83888 <uart_puts>
   81154:	b9801fe1 	ldrsw	x1, [sp, #28]
   81158:	b9801be0 	ldrsw	x0, [sp, #24]
   8115c:	8b000020 	add	x0, x1, x0
   81160:	9101b800 	add	x0, x0, #0x6e
   81164:	f94017e1 	ldr	x1, [sp, #40]
   81168:	8b000020 	add	x0, x1, x0
   8116c:	f90017e0 	str	x0, [sp, #40]
   81170:	528000c2 	mov	w2, #0x6                   	// #6
   81174:	90000020 	adrp	x0, 85000 <exception_handler+0x70>
   81178:	911d4001 	add	x1, x0, #0x750
   8117c:	f94017e0 	ldr	x0, [sp, #40]
   81180:	940006d0 	bl	82cc0 <memcmp>
   81184:	7100001f 	cmp	w0, #0x0
   81188:	54000181 	b.ne	811b8 <initrd_list+0x174>  // b.any
   8118c:	f94017e0 	ldr	x0, [sp, #40]
   81190:	9101b803 	add	x3, x0, #0x6e
   81194:	52800122 	mov	w2, #0x9                   	// #9
   81198:	90000020 	adrp	x0, 85000 <exception_handler+0x70>
   8119c:	911e6001 	add	x1, x0, #0x798
   811a0:	aa0303e0 	mov	x0, x3
   811a4:	940006c7 	bl	82cc0 <memcmp>
   811a8:	7100001f 	cmp	w0, #0x0
   811ac:	54fff6e1 	b.ne	81088 <initrd_list+0x44>  // b.any
   811b0:	14000002 	b	811b8 <initrd_list+0x174>
   811b4:	d503201f 	nop
   811b8:	a8c37bfd 	ldp	x29, x30, [sp], #48
   811bc:	d65f03c0 	ret

00000000000811c0 <initrd_ls>:
   811c0:	a9bd7bfd 	stp	x29, x30, [sp, #-48]!
   811c4:	910003fd 	mov	x29, sp
   811c8:	90000020 	adrp	x0, 85000 <exception_handler+0x70>
   811cc:	91312000 	add	x0, x0, #0xc48
   811d0:	f9400000 	ldr	x0, [x0]
   811d4:	f90017e0 	str	x0, [sp, #40]
   811d8:	528000c2 	mov	w2, #0x6                   	// #6
   811dc:	90000020 	adrp	x0, 85000 <exception_handler+0x70>
   811e0:	911d4001 	add	x1, x0, #0x750
   811e4:	f94017e0 	ldr	x0, [sp, #40]
   811e8:	940006b6 	bl	82cc0 <memcmp>
   811ec:	7100001f 	cmp	w0, #0x0
   811f0:	540005e1 	b.ne	812ac <initrd_ls+0xec>  // b.any
   811f4:	90000020 	adrp	x0, 85000 <exception_handler+0x70>
   811f8:	911ea000 	add	x0, x0, #0x7a8
   811fc:	940009a3 	bl	83888 <uart_puts>
   81200:	1400001a 	b	81268 <initrd_ls+0xa8>
   81204:	f94017e0 	ldr	x0, [sp, #40]
   81208:	f90013e0 	str	x0, [sp, #32]
   8120c:	f94013e0 	ldr	x0, [sp, #32]
   81210:	91017800 	add	x0, x0, #0x5e
   81214:	52800101 	mov	w1, #0x8                   	// #8
   81218:	94000647 	bl	82b34 <hex2bin>
   8121c:	b9001fe0 	str	w0, [sp, #28]
   81220:	f94013e0 	ldr	x0, [sp, #32]
   81224:	9100d800 	add	x0, x0, #0x36
   81228:	52800101 	mov	w1, #0x8                   	// #8
   8122c:	94000642 	bl	82b34 <hex2bin>
   81230:	b9001be0 	str	w0, [sp, #24]
   81234:	f94017e0 	ldr	x0, [sp, #40]
   81238:	9101b800 	add	x0, x0, #0x6e
   8123c:	94000993 	bl	83888 <uart_puts>
   81240:	90000020 	adrp	x0, 85000 <exception_handler+0x70>
   81244:	911e4000 	add	x0, x0, #0x790
   81248:	94000990 	bl	83888 <uart_puts>
   8124c:	b9801fe1 	ldrsw	x1, [sp, #28]
   81250:	b9801be0 	ldrsw	x0, [sp, #24]
   81254:	8b000020 	add	x0, x1, x0
   81258:	9101b800 	add	x0, x0, #0x6e
   8125c:	f94017e1 	ldr	x1, [sp, #40]
   81260:	8b000020 	add	x0, x1, x0
   81264:	f90017e0 	str	x0, [sp, #40]
   81268:	528000c2 	mov	w2, #0x6                   	// #6
   8126c:	90000020 	adrp	x0, 85000 <exception_handler+0x70>
   81270:	911d4001 	add	x1, x0, #0x750
   81274:	f94017e0 	ldr	x0, [sp, #40]
   81278:	94000692 	bl	82cc0 <memcmp>
   8127c:	7100001f 	cmp	w0, #0x0
   81280:	54000181 	b.ne	812b0 <initrd_ls+0xf0>  // b.any
   81284:	f94017e0 	ldr	x0, [sp, #40]
   81288:	9101b803 	add	x3, x0, #0x6e
   8128c:	52800122 	mov	w2, #0x9                   	// #9
   81290:	90000020 	adrp	x0, 85000 <exception_handler+0x70>
   81294:	911e6001 	add	x1, x0, #0x798
   81298:	aa0303e0 	mov	x0, x3
   8129c:	94000689 	bl	82cc0 <memcmp>
   812a0:	7100001f 	cmp	w0, #0x0
   812a4:	54fffb01 	b.ne	81204 <initrd_ls+0x44>  // b.any
   812a8:	14000002 	b	812b0 <initrd_ls+0xf0>
   812ac:	d503201f 	nop
   812b0:	a8c37bfd 	ldp	x29, x30, [sp], #48
   812b4:	d65f03c0 	ret

00000000000812b8 <initrd_cat>:
   812b8:	a9b57bfd 	stp	x29, x30, [sp, #-176]!
   812bc:	910003fd 	mov	x29, sp
   812c0:	90000020 	adrp	x0, 85000 <exception_handler+0x70>
   812c4:	91312000 	add	x0, x0, #0xc48
   812c8:	f9400000 	ldr	x0, [x0]
   812cc:	f90057e0 	str	x0, [sp, #168]
   812d0:	528000c2 	mov	w2, #0x6                   	// #6
   812d4:	90000020 	adrp	x0, 85000 <exception_handler+0x70>
   812d8:	911d4001 	add	x1, x0, #0x750
   812dc:	f94057e0 	ldr	x0, [sp, #168]
   812e0:	94000678 	bl	82cc0 <memcmp>
   812e4:	7100001f 	cmp	w0, #0x0
   812e8:	540008c1 	b.ne	81400 <initrd_cat+0x148>  // b.any
   812ec:	90000020 	adrp	x0, 85000 <exception_handler+0x70>
   812f0:	911ec000 	add	x0, x0, #0x7b0
   812f4:	94000965 	bl	83888 <uart_puts>
   812f8:	910063e0 	add	x0, sp, #0x18
   812fc:	940003a4 	bl	8218c <shell_input>
   81300:	1400002c 	b	813b0 <initrd_cat+0xf8>
   81304:	f94057e0 	ldr	x0, [sp, #168]
   81308:	f90053e0 	str	x0, [sp, #160]
   8130c:	f94053e0 	ldr	x0, [sp, #160]
   81310:	91017800 	add	x0, x0, #0x5e
   81314:	52800101 	mov	w1, #0x8                   	// #8
   81318:	94000607 	bl	82b34 <hex2bin>
   8131c:	b9009fe0 	str	w0, [sp, #156]
   81320:	f94053e0 	ldr	x0, [sp, #160]
   81324:	9100d800 	add	x0, x0, #0x36
   81328:	52800101 	mov	w1, #0x8                   	// #8
   8132c:	94000602 	bl	82b34 <hex2bin>
   81330:	b9009be0 	str	w0, [sp, #152]
   81334:	f94057e0 	ldr	x0, [sp, #168]
   81338:	9101b801 	add	x1, x0, #0x6e
   8133c:	910063e0 	add	x0, sp, #0x18
   81340:	94000642 	bl	82c48 <strcmp>
   81344:	7100001f 	cmp	w0, #0x0
   81348:	54000261 	b.ne	81394 <initrd_cat+0xdc>  // b.any
   8134c:	b9409be0 	ldr	w0, [sp, #152]
   81350:	7100001f 	cmp	w0, #0x0
   81354:	540000e1 	b.ne	81370 <initrd_cat+0xb8>  // b.any
   81358:	52800140 	mov	w0, #0xa                   	// #10
   8135c:	94000927 	bl	837f8 <uart_send>
   81360:	90000020 	adrp	x0, 85000 <exception_handler+0x70>
   81364:	911f0000 	add	x0, x0, #0x7c0
   81368:	94000948 	bl	83888 <uart_puts>
   8136c:	14000026 	b	81404 <initrd_cat+0x14c>
   81370:	52800140 	mov	w0, #0xa                   	// #10
   81374:	94000921 	bl	837f8 <uart_send>
   81378:	b9809fe0 	ldrsw	x0, [sp, #156]
   8137c:	9101b800 	add	x0, x0, #0x6e
   81380:	f94057e1 	ldr	x1, [sp, #168]
   81384:	8b000020 	add	x0, x1, x0
   81388:	b9409be1 	ldr	w1, [sp, #152]
   8138c:	97ffff1b 	bl	80ff8 <readfile>
   81390:	1400001d 	b	81404 <initrd_cat+0x14c>
   81394:	b9809fe1 	ldrsw	x1, [sp, #156]
   81398:	b9809be0 	ldrsw	x0, [sp, #152]
   8139c:	8b000020 	add	x0, x1, x0
   813a0:	9101b800 	add	x0, x0, #0x6e
   813a4:	f94057e1 	ldr	x1, [sp, #168]
   813a8:	8b000020 	add	x0, x1, x0
   813ac:	f90057e0 	str	x0, [sp, #168]
   813b0:	528000c2 	mov	w2, #0x6                   	// #6
   813b4:	90000020 	adrp	x0, 85000 <exception_handler+0x70>
   813b8:	911d4001 	add	x1, x0, #0x750
   813bc:	f94057e0 	ldr	x0, [sp, #168]
   813c0:	94000640 	bl	82cc0 <memcmp>
   813c4:	7100001f 	cmp	w0, #0x0
   813c8:	54000141 	b.ne	813f0 <initrd_cat+0x138>  // b.any
   813cc:	f94057e0 	ldr	x0, [sp, #168]
   813d0:	9101b803 	add	x3, x0, #0x6e
   813d4:	52800122 	mov	w2, #0x9                   	// #9
   813d8:	90000020 	adrp	x0, 85000 <exception_handler+0x70>
   813dc:	911e6001 	add	x1, x0, #0x798
   813e0:	aa0303e0 	mov	x0, x3
   813e4:	94000637 	bl	82cc0 <memcmp>
   813e8:	7100001f 	cmp	w0, #0x0
   813ec:	54fff8c1 	b.ne	81304 <initrd_cat+0x4c>  // b.any
   813f0:	90000020 	adrp	x0, 85000 <exception_handler+0x70>
   813f4:	911f6000 	add	x0, x0, #0x7d8
   813f8:	94000924 	bl	83888 <uart_puts>
   813fc:	14000002 	b	81404 <initrd_cat+0x14c>
   81400:	d503201f 	nop
   81404:	a8cb7bfd 	ldp	x29, x30, [sp], #176
   81408:	d65f03c0 	ret

000000000008140c <initrd_usr_prog>:
   8140c:	a9bb7bfd 	stp	x29, x30, [sp, #-80]!
   81410:	910003fd 	mov	x29, sp
   81414:	f9000fe0 	str	x0, [sp, #24]
   81418:	90000020 	adrp	x0, 85000 <exception_handler+0x70>
   8141c:	91312000 	add	x0, x0, #0xc48
   81420:	f9400000 	ldr	x0, [x0]
   81424:	f90027e0 	str	x0, [sp, #72]
   81428:	528000c2 	mov	w2, #0x6                   	// #6
   8142c:	90000020 	adrp	x0, 85000 <exception_handler+0x70>
   81430:	911d4001 	add	x1, x0, #0x750
   81434:	f94027e0 	ldr	x0, [sp, #72]
   81438:	94000622 	bl	82cc0 <memcmp>
   8143c:	7100001f 	cmp	w0, #0x0
   81440:	54000ca1 	b.ne	815d4 <initrd_usr_prog+0x1c8>  // b.any
   81444:	14000050 	b	81584 <initrd_usr_prog+0x178>
   81448:	f94027e0 	ldr	x0, [sp, #72]
   8144c:	f90017e0 	str	x0, [sp, #40]
   81450:	f94017e0 	ldr	x0, [sp, #40]
   81454:	91017800 	add	x0, x0, #0x5e
   81458:	52800101 	mov	w1, #0x8                   	// #8
   8145c:	940005b6 	bl	82b34 <hex2bin>
   81460:	b90027e0 	str	w0, [sp, #36]
   81464:	f94017e0 	ldr	x0, [sp, #40]
   81468:	9100d800 	add	x0, x0, #0x36
   8146c:	52800101 	mov	w1, #0x8                   	// #8
   81470:	940005b1 	bl	82b34 <hex2bin>
   81474:	b90047e0 	str	w0, [sp, #68]
   81478:	f94027e0 	ldr	x0, [sp, #72]
   8147c:	9101b800 	add	x0, x0, #0x6e
   81480:	aa0003e1 	mov	x1, x0
   81484:	f9400fe0 	ldr	x0, [sp, #24]
   81488:	940005f0 	bl	82c48 <strcmp>
   8148c:	7100001f 	cmp	w0, #0x0
   81490:	540006c1 	b.ne	81568 <initrd_usr_prog+0x15c>  // b.any
   81494:	b94047e0 	ldr	w0, [sp, #68]
   81498:	7100001f 	cmp	w0, #0x0
   8149c:	540000e1 	b.ne	814b8 <initrd_usr_prog+0xac>  // b.any
   814a0:	52800140 	mov	w0, #0xa                   	// #10
   814a4:	940008d5 	bl	837f8 <uart_send>
   814a8:	90000020 	adrp	x0, 85000 <exception_handler+0x70>
   814ac:	911fa000 	add	x0, x0, #0x7e8
   814b0:	940008f6 	bl	83888 <uart_puts>
   814b4:	14000049 	b	815d8 <initrd_usr_prog+0x1cc>
   814b8:	90000020 	adrp	x0, 85000 <exception_handler+0x70>
   814bc:	91200000 	add	x0, x0, #0x800
   814c0:	940008f2 	bl	83888 <uart_puts>
   814c4:	f94027e0 	ldr	x0, [sp, #72]
   814c8:	9101b800 	add	x0, x0, #0x6e
   814cc:	940008ef 	bl	83888 <uart_puts>
   814d0:	90000020 	adrp	x0, 85000 <exception_handler+0x70>
   814d4:	91206000 	add	x0, x0, #0x818
   814d8:	940008ec 	bl	83888 <uart_puts>
   814dc:	f94027e0 	ldr	x0, [sp, #72]
   814e0:	1101b800 	add	w0, w0, #0x6e
   814e4:	94000900 	bl	838e4 <uart_hex>
   814e8:	52800140 	mov	w0, #0xa                   	// #10
   814ec:	940008c3 	bl	837f8 <uart_send>
   814f0:	b98027e0 	ldrsw	x0, [sp, #36]
   814f4:	9101b800 	add	x0, x0, #0x6e
   814f8:	f94027e1 	ldr	x1, [sp, #72]
   814fc:	8b000020 	add	x0, x1, x0
   81500:	f9001fe0 	str	x0, [sp, #56]
   81504:	d2a02140 	mov	x0, #0x10a0000             	// #17432576
   81508:	f9001be0 	str	x0, [sp, #48]
   8150c:	1400000b 	b	81538 <initrd_usr_prog+0x12c>
   81510:	f9401fe0 	ldr	x0, [sp, #56]
   81514:	39400001 	ldrb	w1, [x0]
   81518:	f9401be0 	ldr	x0, [sp, #48]
   8151c:	39000001 	strb	w1, [x0]
   81520:	f9401be0 	ldr	x0, [sp, #48]
   81524:	91000400 	add	x0, x0, #0x1
   81528:	f9001be0 	str	x0, [sp, #48]
   8152c:	f9401fe0 	ldr	x0, [sp, #56]
   81530:	91000400 	add	x0, x0, #0x1
   81534:	f9001fe0 	str	x0, [sp, #56]
   81538:	b94047e0 	ldr	w0, [sp, #68]
   8153c:	51000401 	sub	w1, w0, #0x1
   81540:	b90047e1 	str	w1, [sp, #68]
   81544:	7100001f 	cmp	w0, #0x0
   81548:	54fffe41 	b.ne	81510 <initrd_usr_prog+0x104>  // b.any
   8154c:	d2800000 	mov	x0, #0x0                   	// #0
   81550:	d5184000 	msr	spsr_el1, x0
   81554:	d2a02140 	mov	x0, #0x10a0000             	// #17432576
   81558:	d5184020 	msr	elr_el1, x0
   8155c:	d2a000c0 	mov	x0, #0x60000               	// #393216
   81560:	d5184100 	msr	sp_el0, x0
   81564:	d69f03e0 	eret
   81568:	b98027e1 	ldrsw	x1, [sp, #36]
   8156c:	b98047e0 	ldrsw	x0, [sp, #68]
   81570:	8b000020 	add	x0, x1, x0
   81574:	9101b800 	add	x0, x0, #0x6e
   81578:	f94027e1 	ldr	x1, [sp, #72]
   8157c:	8b000020 	add	x0, x1, x0
   81580:	f90027e0 	str	x0, [sp, #72]
   81584:	528000c2 	mov	w2, #0x6                   	// #6
   81588:	90000020 	adrp	x0, 85000 <exception_handler+0x70>
   8158c:	911d4001 	add	x1, x0, #0x750
   81590:	f94027e0 	ldr	x0, [sp, #72]
   81594:	940005cb 	bl	82cc0 <memcmp>
   81598:	7100001f 	cmp	w0, #0x0
   8159c:	54000141 	b.ne	815c4 <initrd_usr_prog+0x1b8>  // b.any
   815a0:	f94027e0 	ldr	x0, [sp, #72]
   815a4:	9101b803 	add	x3, x0, #0x6e
   815a8:	52800122 	mov	w2, #0x9                   	// #9
   815ac:	90000020 	adrp	x0, 85000 <exception_handler+0x70>
   815b0:	911e6001 	add	x1, x0, #0x798
   815b4:	aa0303e0 	mov	x0, x3
   815b8:	940005c2 	bl	82cc0 <memcmp>
   815bc:	7100001f 	cmp	w0, #0x0
   815c0:	54fff441 	b.ne	81448 <initrd_usr_prog+0x3c>  // b.any
   815c4:	90000020 	adrp	x0, 85000 <exception_handler+0x70>
   815c8:	911f6000 	add	x0, x0, #0x7d8
   815cc:	940008af 	bl	83888 <uart_puts>
   815d0:	14000002 	b	815d8 <initrd_usr_prog+0x1cc>
   815d4:	d503201f 	nop
   815d8:	a8c57bfd 	ldp	x29, x30, [sp], #80
   815dc:	d65f03c0 	ret

00000000000815e0 <initramfs_callback>:
   815e0:	a9bc7bfd 	stp	x29, x30, [sp, #-64]!
   815e4:	910003fd 	mov	x29, sp
   815e8:	f90017e0 	str	x0, [sp, #40]
   815ec:	f90013e1 	str	x1, [sp, #32]
   815f0:	f9000fe2 	str	x2, [sp, #24]
   815f4:	90000020 	adrp	x0, 85000 <exception_handler+0x70>
   815f8:	9120a001 	add	x1, x0, #0x828
   815fc:	f94013e0 	ldr	x0, [sp, #32]
   81600:	94000592 	bl	82c48 <strcmp>
   81604:	7100001f 	cmp	w0, #0x0
   81608:	540004a1 	b.ne	8169c <initramfs_callback+0xbc>  // b.any
   8160c:	90000020 	adrp	x0, 85000 <exception_handler+0x70>
   81610:	9120c001 	add	x1, x0, #0x830
   81614:	f9400fe0 	ldr	x0, [sp, #24]
   81618:	9400058c 	bl	82c48 <strcmp>
   8161c:	7100001f 	cmp	w0, #0x0
   81620:	540003e1 	b.ne	8169c <initramfs_callback+0xbc>  // b.any
   81624:	f94017e0 	ldr	x0, [sp, #40]
   81628:	b9400800 	ldr	w0, [x0, #8]
   8162c:	b9003fe0 	str	w0, [sp, #60]
   81630:	b9403fe0 	ldr	w0, [sp, #60]
   81634:	53187c01 	lsr	w1, w0, #24
   81638:	b9403fe0 	ldr	w0, [sp, #60]
   8163c:	53081c00 	lsl	w0, w0, #24
   81640:	2a000021 	orr	w1, w1, w0
   81644:	b9403fe0 	ldr	w0, [sp, #60]
   81648:	53185c00 	lsl	w0, w0, #8
   8164c:	12101c00 	and	w0, w0, #0xff0000
   81650:	2a000021 	orr	w1, w1, w0
   81654:	b9403fe0 	ldr	w0, [sp, #60]
   81658:	53087c00 	lsr	w0, w0, #8
   8165c:	12181c00 	and	w0, w0, #0xff00
   81660:	2a000020 	orr	w0, w1, w0
   81664:	2a0003e0 	mov	w0, w0
   81668:	aa0003e1 	mov	x1, x0
   8166c:	90000020 	adrp	x0, 85000 <exception_handler+0x70>
   81670:	91312000 	add	x0, x0, #0xc48
   81674:	f9000001 	str	x1, [x0]
   81678:	90000020 	adrp	x0, 85000 <exception_handler+0x70>
   8167c:	91212000 	add	x0, x0, #0x848
   81680:	94000882 	bl	83888 <uart_puts>
   81684:	90000020 	adrp	x0, 85000 <exception_handler+0x70>
   81688:	91312000 	add	x0, x0, #0xc48
   8168c:	f9400000 	ldr	x0, [x0]
   81690:	94000895 	bl	838e4 <uart_hex>
   81694:	52800140 	mov	w0, #0xa                   	// #10
   81698:	94000858 	bl	837f8 <uart_send>
   8169c:	d503201f 	nop
   816a0:	a8c47bfd 	ldp	x29, x30, [sp], #64
   816a4:	d65f03c0 	ret

00000000000816a8 <disable_interrupt>:
   816a8:	d5034fdf 	msr	daifset, #0xf
   816ac:	d503201f 	nop
   816b0:	d65f03c0 	ret

00000000000816b4 <main>:
   816b4:	a9bf7bfd 	stp	x29, x30, [sp, #-16]!
   816b8:	910003fd 	mov	x29, sp
   816bc:	940002ab 	bl	82168 <shell_init>
   816c0:	97fffb84 	bl	804d0 <fdt_init>
   816c4:	90000000 	adrp	x0, 81000 <readfile+0x8>
   816c8:	91178000 	add	x0, x0, #0x5e0
   816cc:	97fffb8e 	bl	80504 <fdt_traverse>
   816d0:	940006f1 	bl	83294 <timer_init>
   816d4:	97fffe22 	bl	80f5c <print_current_el>
   816d8:	9400011f 	bl	81b54 <task_init>
   816dc:	97fffff3 	bl	816a8 <disable_interrupt>
   816e0:	94000292 	bl	82128 <sched_init>
   816e4:	d503201f 	nop
   816e8:	17ffffff 	b	816e4 <main+0x30>

00000000000816ec <mbox_call>:
   816ec:	d10083ff 	sub	sp, sp, #0x20
   816f0:	39003fe0 	strb	w0, [sp, #15]
   816f4:	39403fe0 	ldrb	w0, [sp, #15]
   816f8:	12000c01 	and	w1, w0, #0xf
   816fc:	90000020 	adrp	x0, 85000 <exception_handler+0x70>
   81700:	91314000 	add	x0, x0, #0xc50
   81704:	121c6c00 	and	w0, w0, #0xfffffff0
   81708:	2a000020 	orr	w0, w1, w0
   8170c:	b9001fe0 	str	w0, [sp, #28]
   81710:	d503201f 	nop
   81714:	d2971300 	mov	x0, #0xb898                	// #47256
   81718:	f2a7e000 	movk	x0, #0x3f00, lsl #16
   8171c:	b9400000 	ldr	w0, [x0]
   81720:	7100001f 	cmp	w0, #0x0
   81724:	54ffff6b 	b.lt	81710 <mbox_call+0x24>  // b.tstop
   81728:	d2971400 	mov	x0, #0xb8a0                	// #47264
   8172c:	f2a7e000 	movk	x0, #0x3f00, lsl #16
   81730:	b9401fe1 	ldr	w1, [sp, #28]
   81734:	b9000001 	str	w1, [x0]
   81738:	14000002 	b	81740 <mbox_call+0x54>
   8173c:	d503201f 	nop
   81740:	d503201f 	nop
   81744:	d2971300 	mov	x0, #0xb898                	// #47256
   81748:	f2a7e000 	movk	x0, #0x3f00, lsl #16
   8174c:	b9400000 	ldr	w0, [x0]
   81750:	12020000 	and	w0, w0, #0x40000000
   81754:	7100001f 	cmp	w0, #0x0
   81758:	54ffff41 	b.ne	81740 <mbox_call+0x54>  // b.any
   8175c:	d2971000 	mov	x0, #0xb880                	// #47232
   81760:	f2a7e000 	movk	x0, #0x3f00, lsl #16
   81764:	b9400000 	ldr	w0, [x0]
   81768:	b9401fe1 	ldr	w1, [sp, #28]
   8176c:	6b00003f 	cmp	w1, w0
   81770:	54fffe61 	b.ne	8173c <mbox_call+0x50>  // b.any
   81774:	90000020 	adrp	x0, 85000 <exception_handler+0x70>
   81778:	91314000 	add	x0, x0, #0xc50
   8177c:	b9400401 	ldr	w1, [x0, #4]
   81780:	52b00000 	mov	w0, #0x80000000            	// #-2147483648
   81784:	6b00003f 	cmp	w1, w0
   81788:	1a9f17e0 	cset	w0, eq	// eq = none
   8178c:	12001c00 	and	w0, w0, #0xff
   81790:	910083ff 	add	sp, sp, #0x20
   81794:	d65f03c0 	ret

0000000000081798 <get_board_revision>:
   81798:	a9bf7bfd 	stp	x29, x30, [sp, #-16]!
   8179c:	910003fd 	mov	x29, sp
   817a0:	90000020 	adrp	x0, 85000 <exception_handler+0x70>
   817a4:	91314000 	add	x0, x0, #0xc50
   817a8:	52800381 	mov	w1, #0x1c                  	// #28
   817ac:	b9000001 	str	w1, [x0]
   817b0:	90000020 	adrp	x0, 85000 <exception_handler+0x70>
   817b4:	91314000 	add	x0, x0, #0xc50
   817b8:	b900041f 	str	wzr, [x0, #4]
   817bc:	90000020 	adrp	x0, 85000 <exception_handler+0x70>
   817c0:	91314000 	add	x0, x0, #0xc50
   817c4:	52800041 	mov	w1, #0x2                   	// #2
   817c8:	72a00021 	movk	w1, #0x1, lsl #16
   817cc:	b9000801 	str	w1, [x0, #8]
   817d0:	90000020 	adrp	x0, 85000 <exception_handler+0x70>
   817d4:	91314000 	add	x0, x0, #0xc50
   817d8:	52800081 	mov	w1, #0x4                   	// #4
   817dc:	b9000c01 	str	w1, [x0, #12]
   817e0:	90000020 	adrp	x0, 85000 <exception_handler+0x70>
   817e4:	91314000 	add	x0, x0, #0xc50
   817e8:	b900101f 	str	wzr, [x0, #16]
   817ec:	90000020 	adrp	x0, 85000 <exception_handler+0x70>
   817f0:	91314000 	add	x0, x0, #0xc50
   817f4:	b900141f 	str	wzr, [x0, #20]
   817f8:	90000020 	adrp	x0, 85000 <exception_handler+0x70>
   817fc:	91314000 	add	x0, x0, #0xc50
   81800:	b900181f 	str	wzr, [x0, #24]
   81804:	52800100 	mov	w0, #0x8                   	// #8
   81808:	97ffffb9 	bl	816ec <mbox_call>
   8180c:	90000020 	adrp	x0, 85000 <exception_handler+0x70>
   81810:	91216000 	add	x0, x0, #0x858
   81814:	9400081d 	bl	83888 <uart_puts>
   81818:	90000020 	adrp	x0, 85000 <exception_handler+0x70>
   8181c:	91314000 	add	x0, x0, #0xc50
   81820:	b9401400 	ldr	w0, [x0, #20]
   81824:	94000830 	bl	838e4 <uart_hex>
   81828:	52800140 	mov	w0, #0xa                   	// #10
   8182c:	940007f3 	bl	837f8 <uart_send>
   81830:	d503201f 	nop
   81834:	a8c17bfd 	ldp	x29, x30, [sp], #16
   81838:	d65f03c0 	ret

000000000008183c <get_memory_info>:
   8183c:	a9bf7bfd 	stp	x29, x30, [sp, #-16]!
   81840:	910003fd 	mov	x29, sp
   81844:	90000020 	adrp	x0, 85000 <exception_handler+0x70>
   81848:	91314000 	add	x0, x0, #0xc50
   8184c:	52800401 	mov	w1, #0x20                  	// #32
   81850:	b9000001 	str	w1, [x0]
   81854:	90000020 	adrp	x0, 85000 <exception_handler+0x70>
   81858:	91314000 	add	x0, x0, #0xc50
   8185c:	b900041f 	str	wzr, [x0, #4]
   81860:	90000020 	adrp	x0, 85000 <exception_handler+0x70>
   81864:	91314000 	add	x0, x0, #0xc50
   81868:	528000a1 	mov	w1, #0x5                   	// #5
   8186c:	72a00021 	movk	w1, #0x1, lsl #16
   81870:	b9000801 	str	w1, [x0, #8]
   81874:	90000020 	adrp	x0, 85000 <exception_handler+0x70>
   81878:	91314000 	add	x0, x0, #0xc50
   8187c:	52800101 	mov	w1, #0x8                   	// #8
   81880:	b9000c01 	str	w1, [x0, #12]
   81884:	90000020 	adrp	x0, 85000 <exception_handler+0x70>
   81888:	91314000 	add	x0, x0, #0xc50
   8188c:	b900101f 	str	wzr, [x0, #16]
   81890:	90000020 	adrp	x0, 85000 <exception_handler+0x70>
   81894:	91314000 	add	x0, x0, #0xc50
   81898:	b900141f 	str	wzr, [x0, #20]
   8189c:	90000020 	adrp	x0, 85000 <exception_handler+0x70>
   818a0:	91314000 	add	x0, x0, #0xc50
   818a4:	b900181f 	str	wzr, [x0, #24]
   818a8:	90000020 	adrp	x0, 85000 <exception_handler+0x70>
   818ac:	91314000 	add	x0, x0, #0xc50
   818b0:	b9001c1f 	str	wzr, [x0, #28]
   818b4:	52800100 	mov	w0, #0x8                   	// #8
   818b8:	97ffff8d 	bl	816ec <mbox_call>
   818bc:	90000020 	adrp	x0, 85000 <exception_handler+0x70>
   818c0:	9121c000 	add	x0, x0, #0x870
   818c4:	940007f1 	bl	83888 <uart_puts>
   818c8:	90000020 	adrp	x0, 85000 <exception_handler+0x70>
   818cc:	91314000 	add	x0, x0, #0xc50
   818d0:	b9401400 	ldr	w0, [x0, #20]
   818d4:	94000804 	bl	838e4 <uart_hex>
   818d8:	52800140 	mov	w0, #0xa                   	// #10
   818dc:	940007c7 	bl	837f8 <uart_send>
   818e0:	90000020 	adrp	x0, 85000 <exception_handler+0x70>
   818e4:	91224000 	add	x0, x0, #0x890
   818e8:	940007e8 	bl	83888 <uart_puts>
   818ec:	90000020 	adrp	x0, 85000 <exception_handler+0x70>
   818f0:	91314000 	add	x0, x0, #0xc50
   818f4:	b9401800 	ldr	w0, [x0, #24]
   818f8:	940007fb 	bl	838e4 <uart_hex>
   818fc:	52800140 	mov	w0, #0xa                   	// #10
   81900:	940007be 	bl	837f8 <uart_send>
   81904:	d503201f 	nop
   81908:	a8c17bfd 	ldp	x29, x30, [sp], #16
   8190c:	d65f03c0 	ret

0000000000081910 <power_off>:
   81910:	a9be7bfd 	stp	x29, x30, [sp, #-32]!
   81914:	910003fd 	mov	x29, sp
   81918:	f9000fff 	str	xzr, [sp, #24]
   8191c:	14000025 	b	819b0 <power_off+0xa0>
   81920:	90000020 	adrp	x0, 85000 <exception_handler+0x70>
   81924:	91314000 	add	x0, x0, #0xc50
   81928:	52800401 	mov	w1, #0x20                  	// #32
   8192c:	b9000001 	str	w1, [x0]
   81930:	90000020 	adrp	x0, 85000 <exception_handler+0x70>
   81934:	91314000 	add	x0, x0, #0xc50
   81938:	b900041f 	str	wzr, [x0, #4]
   8193c:	90000020 	adrp	x0, 85000 <exception_handler+0x70>
   81940:	91314000 	add	x0, x0, #0xc50
   81944:	52900021 	mov	w1, #0x8001                	// #32769
   81948:	72a00041 	movk	w1, #0x2, lsl #16
   8194c:	b9000801 	str	w1, [x0, #8]
   81950:	90000020 	adrp	x0, 85000 <exception_handler+0x70>
   81954:	91314000 	add	x0, x0, #0xc50
   81958:	52800101 	mov	w1, #0x8                   	// #8
   8195c:	b9000c01 	str	w1, [x0, #12]
   81960:	90000020 	adrp	x0, 85000 <exception_handler+0x70>
   81964:	91314000 	add	x0, x0, #0xc50
   81968:	52800101 	mov	w1, #0x8                   	// #8
   8196c:	b9001001 	str	w1, [x0, #16]
   81970:	f9400fe0 	ldr	x0, [sp, #24]
   81974:	2a0003e1 	mov	w1, w0
   81978:	90000020 	adrp	x0, 85000 <exception_handler+0x70>
   8197c:	91314000 	add	x0, x0, #0xc50
   81980:	b9001401 	str	w1, [x0, #20]
   81984:	90000020 	adrp	x0, 85000 <exception_handler+0x70>
   81988:	91314000 	add	x0, x0, #0xc50
   8198c:	b900181f 	str	wzr, [x0, #24]
   81990:	90000020 	adrp	x0, 85000 <exception_handler+0x70>
   81994:	91314000 	add	x0, x0, #0xc50
   81998:	b9001c1f 	str	wzr, [x0, #28]
   8199c:	52800100 	mov	w0, #0x8                   	// #8
   819a0:	97ffff53 	bl	816ec <mbox_call>
   819a4:	f9400fe0 	ldr	x0, [sp, #24]
   819a8:	91000400 	add	x0, x0, #0x1
   819ac:	f9000fe0 	str	x0, [sp, #24]
   819b0:	f9400fe0 	ldr	x0, [sp, #24]
   819b4:	f1003c1f 	cmp	x0, #0xf
   819b8:	54fffb49 	b.ls	81920 <power_off+0x10>  // b.plast
   819bc:	d2a7e400 	mov	x0, #0x3f200000            	// #1059061760
   819c0:	b900001f 	str	wzr, [x0]
   819c4:	d2800080 	mov	x0, #0x4                   	// #4
   819c8:	f2a7e400 	movk	x0, #0x3f20, lsl #16
   819cc:	b900001f 	str	wzr, [x0]
   819d0:	d2800100 	mov	x0, #0x8                   	// #8
   819d4:	f2a7e400 	movk	x0, #0x3f20, lsl #16
   819d8:	b900001f 	str	wzr, [x0]
   819dc:	d2800180 	mov	x0, #0xc                   	// #12
   819e0:	f2a7e400 	movk	x0, #0x3f20, lsl #16
   819e4:	b900001f 	str	wzr, [x0]
   819e8:	d2800200 	mov	x0, #0x10                  	// #16
   819ec:	f2a7e400 	movk	x0, #0x3f20, lsl #16
   819f0:	b900001f 	str	wzr, [x0]
   819f4:	d2800280 	mov	x0, #0x14                  	// #20
   819f8:	f2a7e400 	movk	x0, #0x3f20, lsl #16
   819fc:	b900001f 	str	wzr, [x0]
   81a00:	d2801280 	mov	x0, #0x94                  	// #148
   81a04:	f2a7e400 	movk	x0, #0x3f20, lsl #16
   81a08:	b900001f 	str	wzr, [x0]
   81a0c:	528012c0 	mov	w0, #0x96                  	// #150
   81a10:	97fff992 	bl	80058 <wait_cycles>
   81a14:	d2801300 	mov	x0, #0x98                  	// #152
   81a18:	f2a7e400 	movk	x0, #0x3f20, lsl #16
   81a1c:	12800001 	mov	w1, #0xffffffff            	// #-1
   81a20:	b9000001 	str	w1, [x0]
   81a24:	d2801380 	mov	x0, #0x9c                  	// #156
   81a28:	f2a7e400 	movk	x0, #0x3f20, lsl #16
   81a2c:	12800001 	mov	w1, #0xffffffff            	// #-1
   81a30:	b9000001 	str	w1, [x0]
   81a34:	528012c0 	mov	w0, #0x96                  	// #150
   81a38:	97fff988 	bl	80058 <wait_cycles>
   81a3c:	d2801300 	mov	x0, #0x98                  	// #152
   81a40:	f2a7e400 	movk	x0, #0x3f20, lsl #16
   81a44:	b900001f 	str	wzr, [x0]
   81a48:	d2801380 	mov	x0, #0x9c                  	// #156
   81a4c:	f2a7e400 	movk	x0, #0x3f20, lsl #16
   81a50:	b900001f 	str	wzr, [x0]
   81a54:	d2800400 	mov	x0, #0x20                  	// #32
   81a58:	f2a7e200 	movk	x0, #0x3f10, lsl #16
   81a5c:	b9400000 	ldr	w0, [x0]
   81a60:	2a0003e0 	mov	w0, w0
   81a64:	f9000fe0 	str	x0, [sp, #24]
   81a68:	f9400fe1 	ldr	x1, [sp, #24]
   81a6c:	d280aaa0 	mov	x0, #0x555                 	// #1365
   81a70:	8a000020 	and	x0, x1, x0
   81a74:	f9000fe0 	str	x0, [sp, #24]
   81a78:	f9400fe1 	ldr	x1, [sp, #24]
   81a7c:	d280aaa0 	mov	x0, #0x555                 	// #1365
   81a80:	aa000020 	orr	x0, x1, x0
   81a84:	f9000fe0 	str	x0, [sp, #24]
   81a88:	f9400fe0 	ldr	x0, [sp, #24]
   81a8c:	2a0003e2 	mov	w2, w0
   81a90:	d2800400 	mov	x0, #0x20                  	// #32
   81a94:	f2a7e200 	movk	x0, #0x3f10, lsl #16
   81a98:	52ab4001 	mov	w1, #0x5a000000            	// #1509949440
   81a9c:	2a010041 	orr	w1, w2, w1
   81aa0:	b9000001 	str	w1, [x0]
   81aa4:	d2800480 	mov	x0, #0x24                  	// #36
   81aa8:	f2a7e200 	movk	x0, #0x3f10, lsl #16
   81aac:	52800141 	mov	w1, #0xa                   	// #10
   81ab0:	72ab4001 	movk	w1, #0x5a00, lsl #16
   81ab4:	b9000001 	str	w1, [x0]
   81ab8:	d2800380 	mov	x0, #0x1c                  	// #28
   81abc:	f2a7e200 	movk	x0, #0x3f10, lsl #16
   81ac0:	52800401 	mov	w1, #0x20                  	// #32
   81ac4:	72ab4001 	movk	w1, #0x5a00, lsl #16
   81ac8:	b9000001 	str	w1, [x0]
   81acc:	d503201f 	nop
   81ad0:	a8c27bfd 	ldp	x29, x30, [sp], #32
   81ad4:	d65f03c0 	ret

0000000000081ad8 <reset>:
   81ad8:	d10043ff 	sub	sp, sp, #0x10
   81adc:	d2800400 	mov	x0, #0x20                  	// #32
   81ae0:	f2a7e200 	movk	x0, #0x3f10, lsl #16
   81ae4:	b9400000 	ldr	w0, [x0]
   81ae8:	b9000fe0 	str	w0, [sp, #12]
   81aec:	b9400fe1 	ldr	w1, [sp, #12]
   81af0:	5280aaa0 	mov	w0, #0x555                 	// #1365
   81af4:	0a000020 	and	w0, w1, w0
   81af8:	b9000fe0 	str	w0, [sp, #12]
   81afc:	d2800400 	mov	x0, #0x20                  	// #32
   81b00:	f2a7e200 	movk	x0, #0x3f10, lsl #16
   81b04:	b9400fe2 	ldr	w2, [sp, #12]
   81b08:	52ab4001 	mov	w1, #0x5a000000            	// #1509949440
   81b0c:	2a010041 	orr	w1, w2, w1
   81b10:	b9000001 	str	w1, [x0]
   81b14:	d2800480 	mov	x0, #0x24                  	// #36
   81b18:	f2a7e200 	movk	x0, #0x3f10, lsl #16
   81b1c:	52800141 	mov	w1, #0xa                   	// #10
   81b20:	72ab4001 	movk	w1, #0x5a00, lsl #16
   81b24:	b9000001 	str	w1, [x0]
   81b28:	d2800380 	mov	x0, #0x1c                  	// #28
   81b2c:	f2a7e200 	movk	x0, #0x3f10, lsl #16
   81b30:	52800401 	mov	w1, #0x20                  	// #32
   81b34:	72ab4001 	movk	w1, #0x5a00, lsl #16
   81b38:	b9000001 	str	w1, [x0]
   81b3c:	d503201f 	nop
   81b40:	910043ff 	add	sp, sp, #0x10
   81b44:	d65f03c0 	ret

0000000000081b48 <enable_interrupt>:
   81b48:	d5034fff 	msr	daifclr, #0xf
   81b4c:	d503201f 	nop
   81b50:	d65f03c0 	ret

0000000000081b54 <task_init>:
   81b54:	a9be7bfd 	stp	x29, x30, [sp, #-32]!
   81b58:	910003fd 	mov	x29, sp
   81b5c:	b9001fff 	str	wzr, [sp, #28]
   81b60:	14000018 	b	81bc0 <task_init+0x6c>
   81b64:	90000020 	adrp	x0, 85000 <exception_handler+0x70>
   81b68:	91338002 	add	x2, x0, #0xce0
   81b6c:	b9801fe1 	ldrsw	x1, [sp, #28]
   81b70:	aa0103e0 	mov	x0, x1
   81b74:	d37df000 	lsl	x0, x0, #3
   81b78:	8b010000 	add	x0, x0, x1
   81b7c:	d37cec00 	lsl	x0, x0, #4
   81b80:	8b000040 	add	x0, x2, x0
   81b84:	52800101 	mov	w1, #0x8                   	// #8
   81b88:	b9000401 	str	w1, [x0, #4]
   81b8c:	b9401fe2 	ldr	w2, [sp, #28]
   81b90:	90000020 	adrp	x0, 85000 <exception_handler+0x70>
   81b94:	91338003 	add	x3, x0, #0xce0
   81b98:	b9801fe1 	ldrsw	x1, [sp, #28]
   81b9c:	aa0103e0 	mov	x0, x1
   81ba0:	d37df000 	lsl	x0, x0, #3
   81ba4:	8b010000 	add	x0, x0, x1
   81ba8:	d37cec00 	lsl	x0, x0, #4
   81bac:	8b000060 	add	x0, x3, x0
   81bb0:	b9000002 	str	w2, [x0]
   81bb4:	b9401fe0 	ldr	w0, [sp, #28]
   81bb8:	11000400 	add	w0, w0, #0x1
   81bbc:	b9001fe0 	str	w0, [sp, #28]
   81bc0:	b9401fe0 	ldr	w0, [sp, #28]
   81bc4:	7100fc1f 	cmp	w0, #0x3f
   81bc8:	54fffced 	b.le	81b64 <task_init+0x10>
   81bcc:	90000020 	adrp	x0, 85000 <exception_handler+0x70>
   81bd0:	91338000 	add	x0, x0, #0xce0
   81bd4:	b900041f 	str	wzr, [x0, #4]
   81bd8:	90000020 	adrp	x0, 85000 <exception_handler+0x70>
   81bdc:	91338000 	add	x0, x0, #0xce0
   81be0:	d2800021 	mov	x1, #0x1                   	// #1
   81be4:	f9000401 	str	x1, [x0, #8]
   81be8:	90000020 	adrp	x0, 85000 <exception_handler+0x70>
   81bec:	91338000 	add	x0, x0, #0xce0
   81bf0:	d2800021 	mov	x1, #0x1                   	// #1
   81bf4:	f9000801 	str	x1, [x0, #16]
   81bf8:	90000020 	adrp	x0, 85000 <exception_handler+0x70>
   81bfc:	91338000 	add	x0, x0, #0xce0
   81c00:	94000d64 	bl	85190 <update_current>
   81c04:	f0000420 	adrp	x0, 108000 <ustack_pool+0x3ff20>
   81c08:	91038000 	add	x0, x0, #0xe0
   81c0c:	52800021 	mov	w1, #0x1                   	// #1
   81c10:	b9000001 	str	w1, [x0]
   81c14:	d503201f 	nop
   81c18:	a8c27bfd 	ldp	x29, x30, [sp], #32
   81c1c:	d65f03c0 	ret

0000000000081c20 <context_switch>:
   81c20:	a9bd7bfd 	stp	x29, x30, [sp, #-48]!
   81c24:	910003fd 	mov	x29, sp
   81c28:	f9000fe0 	str	x0, [sp, #24]
   81c2c:	94000d6c 	bl	851dc <get_current>
   81c30:	f90017e0 	str	x0, [sp, #40]
   81c34:	f9400fe0 	ldr	x0, [sp, #24]
   81c38:	94000d56 	bl	85190 <update_current>
   81c3c:	f94017e0 	ldr	x0, [sp, #40]
   81c40:	91008002 	add	x2, x0, #0x20
   81c44:	f9400fe0 	ldr	x0, [sp, #24]
   81c48:	91008000 	add	x0, x0, #0x20
   81c4c:	aa0003e1 	mov	x1, x0
   81c50:	aa0203e0 	mov	x0, x2
   81c54:	94000d51 	bl	85198 <switch_to>
   81c58:	d503201f 	nop
   81c5c:	a8c37bfd 	ldp	x29, x30, [sp], #48
   81c60:	d65f03c0 	ret

0000000000081c64 <find_empty_task>:
   81c64:	d10043ff 	sub	sp, sp, #0x10
   81c68:	52800020 	mov	w0, #0x1                   	// #1
   81c6c:	b9000fe0 	str	w0, [sp, #12]
   81c70:	1400000f 	b	81cac <find_empty_task+0x48>
   81c74:	90000020 	adrp	x0, 85000 <exception_handler+0x70>
   81c78:	91338002 	add	x2, x0, #0xce0
   81c7c:	b9800fe1 	ldrsw	x1, [sp, #12]
   81c80:	aa0103e0 	mov	x0, x1
   81c84:	d37df000 	lsl	x0, x0, #3
   81c88:	8b010000 	add	x0, x0, x1
   81c8c:	d37cec00 	lsl	x0, x0, #4
   81c90:	8b000040 	add	x0, x2, x0
   81c94:	b9400400 	ldr	w0, [x0, #4]
   81c98:	7100201f 	cmp	w0, #0x8
   81c9c:	54000100 	b.eq	81cbc <find_empty_task+0x58>  // b.none
   81ca0:	b9400fe0 	ldr	w0, [sp, #12]
   81ca4:	11000400 	add	w0, w0, #0x1
   81ca8:	b9000fe0 	str	w0, [sp, #12]
   81cac:	b9400fe0 	ldr	w0, [sp, #12]
   81cb0:	7100fc1f 	cmp	w0, #0x3f
   81cb4:	54fffe0d 	b.le	81c74 <find_empty_task+0x10>
   81cb8:	14000002 	b	81cc0 <find_empty_task+0x5c>
   81cbc:	d503201f 	nop
   81cc0:	b9400fe0 	ldr	w0, [sp, #12]
   81cc4:	7101001f 	cmp	w0, #0x40
   81cc8:	54000100 	b.eq	81ce8 <find_empty_task+0x84>  // b.none
   81ccc:	f0000420 	adrp	x0, 108000 <ustack_pool+0x3ff20>
   81cd0:	91038000 	add	x0, x0, #0xe0
   81cd4:	b9400000 	ldr	w0, [x0]
   81cd8:	11000401 	add	w1, w0, #0x1
   81cdc:	f0000420 	adrp	x0, 108000 <ustack_pool+0x3ff20>
   81ce0:	91038000 	add	x0, x0, #0xe0
   81ce4:	b9000001 	str	w1, [x0]
   81ce8:	b9400fe0 	ldr	w0, [sp, #12]
   81cec:	910043ff 	add	sp, sp, #0x10
   81cf0:	d65f03c0 	ret

0000000000081cf4 <privilege_task_create>:
   81cf4:	a9bd7bfd 	stp	x29, x30, [sp, #-48]!
   81cf8:	910003fd 	mov	x29, sp
   81cfc:	f9000fe0 	str	x0, [sp, #24]
   81d00:	f9000be1 	str	x1, [sp, #16]
   81d04:	97ffffd8 	bl	81c64 <find_empty_task>
   81d08:	b9002fe0 	str	w0, [sp, #44]
   81d0c:	b9402fe0 	ldr	w0, [sp, #44]
   81d10:	7101001f 	cmp	w0, #0x40
   81d14:	54000e60 	b.eq	81ee0 <privilege_task_create+0x1ec>  // b.none
   81d18:	90000020 	adrp	x0, 85000 <exception_handler+0x70>
   81d1c:	91338002 	add	x2, x0, #0xce0
   81d20:	b9802fe1 	ldrsw	x1, [sp, #44]
   81d24:	aa0103e0 	mov	x0, x1
   81d28:	d37df000 	lsl	x0, x0, #3
   81d2c:	8b010000 	add	x0, x0, x1
   81d30:	d37cec00 	lsl	x0, x0, #4
   81d34:	8b000040 	add	x0, x2, x0
   81d38:	b900041f 	str	wzr, [x0, #4]
   81d3c:	90000020 	adrp	x0, 85000 <exception_handler+0x70>
   81d40:	91338002 	add	x2, x0, #0xce0
   81d44:	b9802fe1 	ldrsw	x1, [sp, #44]
   81d48:	aa0103e0 	mov	x0, x1
   81d4c:	d37df000 	lsl	x0, x0, #3
   81d50:	8b010000 	add	x0, x0, x1
   81d54:	d37cec00 	lsl	x0, x0, #4
   81d58:	8b000040 	add	x0, x2, x0
   81d5c:	f9400be1 	ldr	x1, [sp, #16]
   81d60:	f9000401 	str	x1, [x0, #8]
   81d64:	90000020 	adrp	x0, 85000 <exception_handler+0x70>
   81d68:	91338002 	add	x2, x0, #0xce0
   81d6c:	b9802fe1 	ldrsw	x1, [sp, #44]
   81d70:	aa0103e0 	mov	x0, x1
   81d74:	d37df000 	lsl	x0, x0, #3
   81d78:	8b010000 	add	x0, x0, x1
   81d7c:	d37cec00 	lsl	x0, x0, #4
   81d80:	8b000040 	add	x0, x2, x0
   81d84:	f9400be1 	ldr	x1, [sp, #16]
   81d88:	f9000801 	str	x1, [x0, #16]
   81d8c:	f9400fe2 	ldr	x2, [sp, #24]
   81d90:	90000020 	adrp	x0, 85000 <exception_handler+0x70>
   81d94:	91338003 	add	x3, x0, #0xce0
   81d98:	b9802fe1 	ldrsw	x1, [sp, #44]
   81d9c:	aa0103e0 	mov	x0, x1
   81da0:	d37df000 	lsl	x0, x0, #3
   81da4:	8b010000 	add	x0, x0, x1
   81da8:	d37cec00 	lsl	x0, x0, #4
   81dac:	8b000060 	add	x0, x3, x0
   81db0:	f9003c02 	str	x2, [x0, #120]
   81db4:	b9802fe0 	ldrsw	x0, [sp, #44]
   81db8:	d374cc00 	lsl	x0, x0, #12
   81dbc:	913fc001 	add	x1, x0, #0xff0
   81dc0:	f0000020 	adrp	x0, 88000 <task_pool+0x2320>
   81dc4:	91038000 	add	x0, x0, #0xe0
   81dc8:	8b000020 	add	x0, x1, x0
   81dcc:	aa0003e3 	mov	x3, x0
   81dd0:	90000020 	adrp	x0, 85000 <exception_handler+0x70>
   81dd4:	91338002 	add	x2, x0, #0xce0
   81dd8:	b9802fe1 	ldrsw	x1, [sp, #44]
   81ddc:	aa0103e0 	mov	x0, x1
   81de0:	d37df000 	lsl	x0, x0, #3
   81de4:	8b010000 	add	x0, x0, x1
   81de8:	d37cec00 	lsl	x0, x0, #4
   81dec:	8b000040 	add	x0, x2, x0
   81df0:	f9004003 	str	x3, [x0, #128]
   81df4:	b9802fe0 	ldrsw	x0, [sp, #44]
   81df8:	d374cc00 	lsl	x0, x0, #12
   81dfc:	913fc001 	add	x1, x0, #0xff0
   81e00:	f0000020 	adrp	x0, 88000 <task_pool+0x2320>
   81e04:	91038000 	add	x0, x0, #0xe0
   81e08:	8b000020 	add	x0, x1, x0
   81e0c:	aa0003e3 	mov	x3, x0
   81e10:	90000020 	adrp	x0, 85000 <exception_handler+0x70>
   81e14:	91338002 	add	x2, x0, #0xce0
   81e18:	b9802fe1 	ldrsw	x1, [sp, #44]
   81e1c:	aa0103e0 	mov	x0, x1
   81e20:	d37df000 	lsl	x0, x0, #3
   81e24:	8b010000 	add	x0, x0, x1
   81e28:	d37cec00 	lsl	x0, x0, #4
   81e2c:	8b000040 	add	x0, x2, x0
   81e30:	f9003803 	str	x3, [x0, #112]
   81e34:	90000020 	adrp	x0, 85000 <exception_handler+0x70>
   81e38:	91338002 	add	x2, x0, #0xce0
   81e3c:	b9802fe1 	ldrsw	x1, [sp, #44]
   81e40:	aa0103e0 	mov	x0, x1
   81e44:	d37df000 	lsl	x0, x0, #3
   81e48:	8b010000 	add	x0, x0, x1
   81e4c:	d37cec00 	lsl	x0, x0, #4
   81e50:	8b000040 	add	x0, x2, x0
   81e54:	f9400406 	ldr	x6, [x0, #8]
   81e58:	90000020 	adrp	x0, 85000 <exception_handler+0x70>
   81e5c:	91338002 	add	x2, x0, #0xce0
   81e60:	b9802fe1 	ldrsw	x1, [sp, #44]
   81e64:	aa0103e0 	mov	x0, x1
   81e68:	d37df000 	lsl	x0, x0, #3
   81e6c:	8b010000 	add	x0, x0, x1
   81e70:	d37cec00 	lsl	x0, x0, #4
   81e74:	8b000040 	add	x0, x2, x0
   81e78:	f9400803 	ldr	x3, [x0, #16]
   81e7c:	90000020 	adrp	x0, 85000 <exception_handler+0x70>
   81e80:	91338002 	add	x2, x0, #0xce0
   81e84:	b9802fe1 	ldrsw	x1, [sp, #44]
   81e88:	aa0103e0 	mov	x0, x1
   81e8c:	d37df000 	lsl	x0, x0, #3
   81e90:	8b010000 	add	x0, x0, x1
   81e94:	d37cec00 	lsl	x0, x0, #4
   81e98:	8b000040 	add	x0, x2, x0
   81e9c:	f9404004 	ldr	x4, [x0, #128]
   81ea0:	90000020 	adrp	x0, 85000 <exception_handler+0x70>
   81ea4:	91338002 	add	x2, x0, #0xce0
   81ea8:	b9802fe1 	ldrsw	x1, [sp, #44]
   81eac:	aa0103e0 	mov	x0, x1
   81eb0:	d37df000 	lsl	x0, x0, #3
   81eb4:	8b010000 	add	x0, x0, x1
   81eb8:	d37cec00 	lsl	x0, x0, #4
   81ebc:	8b000040 	add	x0, x2, x0
   81ec0:	f9403c00 	ldr	x0, [x0, #120]
   81ec4:	aa0003e5 	mov	x5, x0
   81ec8:	aa0603e2 	mov	x2, x6
   81ecc:	b9402fe1 	ldr	w1, [sp, #44]
   81ed0:	90000020 	adrp	x0, 85000 <exception_handler+0x70>
   81ed4:	9122a000 	add	x0, x0, #0x8a8
   81ed8:	940006b0 	bl	83998 <printf>
   81edc:	14000006 	b	81ef4 <privilege_task_create+0x200>
   81ee0:	90000020 	adrp	x0, 85000 <exception_handler+0x70>
   81ee4:	9123a000 	add	x0, x0, #0x8e8
   81ee8:	94000668 	bl	83888 <uart_puts>
   81eec:	d503201f 	nop
   81ef0:	17ffffff 	b	81eec <privilege_task_create+0x1f8>
   81ef4:	b9402fe0 	ldr	w0, [sp, #44]
   81ef8:	a8c37bfd 	ldp	x29, x30, [sp], #48
   81efc:	d65f03c0 	ret

0000000000081f00 <schedule>:
   81f00:	a9be7bfd 	stp	x29, x30, [sp, #-32]!
   81f04:	910003fd 	mov	x29, sp
   81f08:	52800800 	mov	w0, #0x40                  	// #64
   81f0c:	b9001fe0 	str	w0, [sp, #28]
   81f10:	12800000 	mov	w0, #0xffffffff            	// #-1
   81f14:	b9001be0 	str	w0, [sp, #24]
   81f18:	b90017ff 	str	wzr, [sp, #20]
   81f1c:	14000024 	b	81fac <schedule+0xac>
   81f20:	90000020 	adrp	x0, 85000 <exception_handler+0x70>
   81f24:	91338002 	add	x2, x0, #0xce0
   81f28:	b9801fe1 	ldrsw	x1, [sp, #28]
   81f2c:	aa0103e0 	mov	x0, x1
   81f30:	d37df000 	lsl	x0, x0, #3
   81f34:	8b010000 	add	x0, x0, x1
   81f38:	d37cec00 	lsl	x0, x0, #4
   81f3c:	8b000040 	add	x0, x2, x0
   81f40:	b9400400 	ldr	w0, [x0, #4]
   81f44:	7100001f 	cmp	w0, #0x0
   81f48:	54000321 	b.ne	81fac <schedule+0xac>  // b.any
   81f4c:	90000020 	adrp	x0, 85000 <exception_handler+0x70>
   81f50:	91338002 	add	x2, x0, #0xce0
   81f54:	b9801fe1 	ldrsw	x1, [sp, #28]
   81f58:	aa0103e0 	mov	x0, x1
   81f5c:	d37df000 	lsl	x0, x0, #3
   81f60:	8b010000 	add	x0, x0, x1
   81f64:	d37cec00 	lsl	x0, x0, #4
   81f68:	8b000040 	add	x0, x2, x0
   81f6c:	f9400801 	ldr	x1, [x0, #16]
   81f70:	b9801be0 	ldrsw	x0, [sp, #24]
   81f74:	eb00003f 	cmp	x1, x0
   81f78:	540001ad 	b.le	81fac <schedule+0xac>
   81f7c:	90000020 	adrp	x0, 85000 <exception_handler+0x70>
   81f80:	91338002 	add	x2, x0, #0xce0
   81f84:	b9801fe1 	ldrsw	x1, [sp, #28]
   81f88:	aa0103e0 	mov	x0, x1
   81f8c:	d37df000 	lsl	x0, x0, #3
   81f90:	8b010000 	add	x0, x0, x1
   81f94:	d37cec00 	lsl	x0, x0, #4
   81f98:	8b000040 	add	x0, x2, x0
   81f9c:	f9400800 	ldr	x0, [x0, #16]
   81fa0:	b9001be0 	str	w0, [sp, #24]
   81fa4:	b9401fe0 	ldr	w0, [sp, #28]
   81fa8:	b90017e0 	str	w0, [sp, #20]
   81fac:	b9401fe0 	ldr	w0, [sp, #28]
   81fb0:	51000400 	sub	w0, w0, #0x1
   81fb4:	b9001fe0 	str	w0, [sp, #28]
   81fb8:	b9401fe0 	ldr	w0, [sp, #28]
   81fbc:	7100001f 	cmp	w0, #0x0
   81fc0:	54fffb01 	b.ne	81f20 <schedule+0x20>  // b.any
   81fc4:	b9401be0 	ldr	w0, [sp, #24]
   81fc8:	7100001f 	cmp	w0, #0x0
   81fcc:	540006a1 	b.ne	820a0 <schedule+0x1a0>  // b.any
   81fd0:	90000020 	adrp	x0, 85000 <exception_handler+0x70>
   81fd4:	91246000 	add	x0, x0, #0x918
   81fd8:	94000670 	bl	83998 <printf>
   81fdc:	b9001fff 	str	wzr, [sp, #28]
   81fe0:	1400002c 	b	82090 <schedule+0x190>
   81fe4:	90000020 	adrp	x0, 85000 <exception_handler+0x70>
   81fe8:	91338002 	add	x2, x0, #0xce0
   81fec:	b9801fe1 	ldrsw	x1, [sp, #28]
   81ff0:	aa0103e0 	mov	x0, x1
   81ff4:	d37df000 	lsl	x0, x0, #3
   81ff8:	8b010000 	add	x0, x0, x1
   81ffc:	d37cec00 	lsl	x0, x0, #4
   82000:	8b000040 	add	x0, x2, x0
   82004:	b9400400 	ldr	w0, [x0, #4]
   82008:	7100001f 	cmp	w0, #0x0
   8200c:	540003c1 	b.ne	82084 <schedule+0x184>  // b.any
   82010:	f0000000 	adrp	x0, 85000 <exception_handler+0x70>
   82014:	91338002 	add	x2, x0, #0xce0
   82018:	b9801fe1 	ldrsw	x1, [sp, #28]
   8201c:	aa0103e0 	mov	x0, x1
   82020:	d37df000 	lsl	x0, x0, #3
   82024:	8b010000 	add	x0, x0, x1
   82028:	d37cec00 	lsl	x0, x0, #4
   8202c:	8b000040 	add	x0, x2, x0
   82030:	f9400800 	ldr	x0, [x0, #16]
   82034:	9341fc02 	asr	x2, x0, #1
   82038:	f0000000 	adrp	x0, 85000 <exception_handler+0x70>
   8203c:	91338003 	add	x3, x0, #0xce0
   82040:	b9801fe1 	ldrsw	x1, [sp, #28]
   82044:	aa0103e0 	mov	x0, x1
   82048:	d37df000 	lsl	x0, x0, #3
   8204c:	8b010000 	add	x0, x0, x1
   82050:	d37cec00 	lsl	x0, x0, #4
   82054:	8b000060 	add	x0, x3, x0
   82058:	f9400400 	ldr	x0, [x0, #8]
   8205c:	8b000042 	add	x2, x2, x0
   82060:	f0000000 	adrp	x0, 85000 <exception_handler+0x70>
   82064:	91338003 	add	x3, x0, #0xce0
   82068:	b9801fe1 	ldrsw	x1, [sp, #28]
   8206c:	aa0103e0 	mov	x0, x1
   82070:	d37df000 	lsl	x0, x0, #3
   82074:	8b010000 	add	x0, x0, x1
   82078:	d37cec00 	lsl	x0, x0, #4
   8207c:	8b000060 	add	x0, x3, x0
   82080:	f9000802 	str	x2, [x0, #16]
   82084:	b9401fe0 	ldr	w0, [sp, #28]
   82088:	11000400 	add	w0, w0, #0x1
   8208c:	b9001fe0 	str	w0, [sp, #28]
   82090:	b9401fe0 	ldr	w0, [sp, #28]
   82094:	7100fc1f 	cmp	w0, #0x3f
   82098:	54fffa6d 	b.le	81fe4 <schedule+0xe4>
   8209c:	17ffffc4 	b	81fac <schedule+0xac>
   820a0:	d503201f 	nop
   820a4:	b94017e1 	ldr	w1, [sp, #20]
   820a8:	f0000000 	adrp	x0, 85000 <exception_handler+0x70>
   820ac:	9124c000 	add	x0, x0, #0x930
   820b0:	9400063a 	bl	83998 <printf>
   820b4:	b98017e1 	ldrsw	x1, [sp, #20]
   820b8:	aa0103e0 	mov	x0, x1
   820bc:	d37df000 	lsl	x0, x0, #3
   820c0:	8b010000 	add	x0, x0, x1
   820c4:	d37cec00 	lsl	x0, x0, #4
   820c8:	f0000001 	adrp	x1, 85000 <exception_handler+0x70>
   820cc:	91338021 	add	x1, x1, #0xce0
   820d0:	8b010000 	add	x0, x0, x1
   820d4:	97fffed3 	bl	81c20 <context_switch>
   820d8:	d503201f 	nop
   820dc:	a8c27bfd 	ldp	x29, x30, [sp], #32
   820e0:	d65f03c0 	ret

00000000000820e4 <idle>:
   820e4:	a9bf7bfd 	stp	x29, x30, [sp, #-16]!
   820e8:	910003fd 	mov	x29, sp
   820ec:	d0000420 	adrp	x0, 108000 <ustack_pool+0x3ff20>
   820f0:	91038000 	add	x0, x0, #0xe0
   820f4:	b9400000 	ldr	w0, [x0]
   820f8:	7100041f 	cmp	w0, #0x1
   820fc:	540000a0 	b.eq	82110 <idle+0x2c>  // b.none
   82100:	97ffff80 	bl	81f00 <schedule>
   82104:	52800020 	mov	w0, #0x1                   	// #1
   82108:	97fff804 	bl	80118 <wait_sec>
   8210c:	17fffff8 	b	820ec <idle+0x8>
   82110:	d503201f 	nop
   82114:	f0000000 	adrp	x0, 85000 <exception_handler+0x70>
   82118:	91252000 	add	x0, x0, #0x948
   8211c:	9400061f 	bl	83998 <printf>
   82120:	d503201f 	nop
   82124:	17ffffff 	b	82120 <idle+0x3c>

0000000000082128 <sched_init>:
   82128:	a9bf7bfd 	stp	x29, x30, [sp, #-16]!
   8212c:	910003fd 	mov	x29, sp
   82130:	d28000a1 	mov	x1, #0x5                   	// #5
   82134:	d0ffffe0 	adrp	x0, 80000 <_start>
   82138:	910c7000 	add	x0, x0, #0x31c
   8213c:	97fffeee 	bl	81cf4 <privilege_task_create>
   82140:	d28000a1 	mov	x1, #0x5                   	// #5
   82144:	d0ffffe0 	adrp	x0, 80000 <_start>
   82148:	910cf000 	add	x0, x0, #0x33c
   8214c:	97fffeea 	bl	81cf4 <privilege_task_create>
   82150:	97fffe7e 	bl	81b48 <enable_interrupt>
   82154:	94000c37 	bl	85230 <core_timer_enable>
   82158:	97ffff6a 	bl	81f00 <schedule>
   8215c:	d503201f 	nop
   82160:	a8c17bfd 	ldp	x29, x30, [sp], #16
   82164:	d65f03c0 	ret

0000000000082168 <shell_init>:
   82168:	a9bf7bfd 	stp	x29, x30, [sp, #-16]!
   8216c:	910003fd 	mov	x29, sp
   82170:	9400054f 	bl	836ac <uart_init>
   82174:	f0000000 	adrp	x0, 85000 <exception_handler+0x70>
   82178:	91256000 	add	x0, x0, #0x958
   8217c:	940005c3 	bl	83888 <uart_puts>
   82180:	d503201f 	nop
   82184:	a8c17bfd 	ldp	x29, x30, [sp], #16
   82188:	d65f03c0 	ret

000000000008218c <shell_input>:
   8218c:	a9bd7bfd 	stp	x29, x30, [sp, #-48]!
   82190:	910003fd 	mov	x29, sp
   82194:	f9000fe0 	str	x0, [sp, #24]
   82198:	b9002fff 	str	wzr, [sp, #44]
   8219c:	b9002bff 	str	wzr, [sp, #40]
   821a0:	14000012 	b	821e8 <shell_input+0x5c>
   821a4:	39409fe0 	ldrb	w0, [sp, #39]
   821a8:	94000594 	bl	837f8 <uart_send>
   821ac:	b9402fe0 	ldr	w0, [sp, #44]
   821b0:	11000401 	add	w1, w0, #0x1
   821b4:	b9002fe1 	str	w1, [sp, #44]
   821b8:	93407c00 	sxtw	x0, w0
   821bc:	f9400fe1 	ldr	x1, [sp, #24]
   821c0:	8b000020 	add	x0, x1, x0
   821c4:	39409fe1 	ldrb	w1, [sp, #39]
   821c8:	39000001 	strb	w1, [x0]
   821cc:	b9402be0 	ldr	w0, [sp, #40]
   821d0:	11000400 	add	w0, w0, #0x1
   821d4:	b9002be0 	str	w0, [sp, #40]
   821d8:	b9802be0 	ldrsw	x0, [sp, #40]
   821dc:	f9400fe1 	ldr	x1, [sp, #24]
   821e0:	8b000020 	add	x0, x1, x0
   821e4:	3900001f 	strb	wzr, [x0]
   821e8:	94000594 	bl	83838 <uart_getc>
   821ec:	39009fe0 	strb	w0, [sp, #39]
   821f0:	39409fe0 	ldrb	w0, [sp, #39]
   821f4:	7100281f 	cmp	w0, #0xa
   821f8:	54fffd61 	b.ne	821a4 <shell_input+0x18>  // b.any
   821fc:	d503201f 	nop
   82200:	d503201f 	nop
   82204:	a8c37bfd 	ldp	x29, x30, [sp], #48
   82208:	d65f03c0 	ret

000000000008220c <shell_controller>:
   8220c:	a9be7bfd 	stp	x29, x30, [sp, #-32]!
   82210:	910003fd 	mov	x29, sp
   82214:	f9000fe0 	str	x0, [sp, #24]
   82218:	52800140 	mov	w0, #0xa                   	// #10
   8221c:	94000577 	bl	837f8 <uart_send>
   82220:	f0000000 	adrp	x0, 85000 <exception_handler+0x70>
   82224:	9125e001 	add	x1, x0, #0x978
   82228:	f9400fe0 	ldr	x0, [sp, #24]
   8222c:	94000287 	bl	82c48 <strcmp>
   82230:	7100001f 	cmp	w0, #0x0
   82234:	54000dc0 	b.eq	823ec <shell_controller+0x1e0>  // b.none
   82238:	f0000000 	adrp	x0, 85000 <exception_handler+0x70>
   8223c:	91260001 	add	x1, x0, #0x980
   82240:	f9400fe0 	ldr	x0, [sp, #24]
   82244:	94000281 	bl	82c48 <strcmp>
   82248:	7100001f 	cmp	w0, #0x0
   8224c:	54000341 	b.ne	822b4 <shell_controller+0xa8>  // b.any
   82250:	f0000000 	adrp	x0, 85000 <exception_handler+0x70>
   82254:	91262000 	add	x0, x0, #0x988
   82258:	9400058c 	bl	83888 <uart_puts>
   8225c:	f0000000 	adrp	x0, 85000 <exception_handler+0x70>
   82260:	9126c000 	add	x0, x0, #0x9b0
   82264:	94000589 	bl	83888 <uart_puts>
   82268:	f0000000 	adrp	x0, 85000 <exception_handler+0x70>
   8226c:	91276000 	add	x0, x0, #0x9d8
   82270:	94000586 	bl	83888 <uart_puts>
   82274:	f0000000 	adrp	x0, 85000 <exception_handler+0x70>
   82278:	91282000 	add	x0, x0, #0xa08
   8227c:	94000583 	bl	83888 <uart_puts>
   82280:	f0000000 	adrp	x0, 85000 <exception_handler+0x70>
   82284:	9128e000 	add	x0, x0, #0xa38
   82288:	94000580 	bl	83888 <uart_puts>
   8228c:	f0000000 	adrp	x0, 85000 <exception_handler+0x70>
   82290:	91298000 	add	x0, x0, #0xa60
   82294:	9400057d 	bl	83888 <uart_puts>
   82298:	f0000000 	adrp	x0, 85000 <exception_handler+0x70>
   8229c:	912a4000 	add	x0, x0, #0xa90
   822a0:	9400057a 	bl	83888 <uart_puts>
   822a4:	f0000000 	adrp	x0, 85000 <exception_handler+0x70>
   822a8:	912b8000 	add	x0, x0, #0xae0
   822ac:	94000577 	bl	83888 <uart_puts>
   822b0:	14000050 	b	823f0 <shell_controller+0x1e4>
   822b4:	f0000000 	adrp	x0, 85000 <exception_handler+0x70>
   822b8:	912cc001 	add	x1, x0, #0xb30
   822bc:	f9400fe0 	ldr	x0, [sp, #24]
   822c0:	94000262 	bl	82c48 <strcmp>
   822c4:	7100001f 	cmp	w0, #0x0
   822c8:	540000a1 	b.ne	822dc <shell_controller+0xd0>  // b.any
   822cc:	f0000000 	adrp	x0, 85000 <exception_handler+0x70>
   822d0:	912ce000 	add	x0, x0, #0xb38
   822d4:	9400056d 	bl	83888 <uart_puts>
   822d8:	14000046 	b	823f0 <shell_controller+0x1e4>
   822dc:	f0000000 	adrp	x0, 85000 <exception_handler+0x70>
   822e0:	912d2001 	add	x1, x0, #0xb48
   822e4:	f9400fe0 	ldr	x0, [sp, #24]
   822e8:	94000258 	bl	82c48 <strcmp>
   822ec:	7100001f 	cmp	w0, #0x0
   822f0:	54000061 	b.ne	822fc <shell_controller+0xf0>  // b.any
   822f4:	97fffdf9 	bl	81ad8 <reset>
   822f8:	1400003e 	b	823f0 <shell_controller+0x1e4>
   822fc:	f0000000 	adrp	x0, 85000 <exception_handler+0x70>
   82300:	912d4001 	add	x1, x0, #0xb50
   82304:	f9400fe0 	ldr	x0, [sp, #24]
   82308:	94000250 	bl	82c48 <strcmp>
   8230c:	7100001f 	cmp	w0, #0x0
   82310:	54000061 	b.ne	8231c <shell_controller+0x110>  // b.any
   82314:	97fffd7f 	bl	81910 <power_off>
   82318:	14000036 	b	823f0 <shell_controller+0x1e4>
   8231c:	f0000000 	adrp	x0, 85000 <exception_handler+0x70>
   82320:	912d8001 	add	x1, x0, #0xb60
   82324:	f9400fe0 	ldr	x0, [sp, #24]
   82328:	94000248 	bl	82c48 <strcmp>
   8232c:	7100001f 	cmp	w0, #0x0
   82330:	54000061 	b.ne	8233c <shell_controller+0x130>  // b.any
   82334:	97fffba3 	bl	811c0 <initrd_ls>
   82338:	1400002e 	b	823f0 <shell_controller+0x1e4>
   8233c:	f0000000 	adrp	x0, 85000 <exception_handler+0x70>
   82340:	912da001 	add	x1, x0, #0xb68
   82344:	f9400fe0 	ldr	x0, [sp, #24]
   82348:	94000240 	bl	82c48 <strcmp>
   8234c:	7100001f 	cmp	w0, #0x0
   82350:	54000061 	b.ne	8235c <shell_controller+0x150>  // b.any
   82354:	97fffb3c 	bl	81044 <initrd_list>
   82358:	14000026 	b	823f0 <shell_controller+0x1e4>
   8235c:	f0000000 	adrp	x0, 85000 <exception_handler+0x70>
   82360:	912dc001 	add	x1, x0, #0xb70
   82364:	f9400fe0 	ldr	x0, [sp, #24]
   82368:	94000238 	bl	82c48 <strcmp>
   8236c:	7100001f 	cmp	w0, #0x0
   82370:	54000061 	b.ne	8237c <shell_controller+0x170>  // b.any
   82374:	97fffbd1 	bl	812b8 <initrd_cat>
   82378:	1400001e 	b	823f0 <shell_controller+0x1e4>
   8237c:	f0000000 	adrp	x0, 85000 <exception_handler+0x70>
   82380:	912de001 	add	x1, x0, #0xb78
   82384:	f9400fe0 	ldr	x0, [sp, #24]
   82388:	94000230 	bl	82c48 <strcmp>
   8238c:	7100001f 	cmp	w0, #0x0
   82390:	54000061 	b.ne	8239c <shell_controller+0x190>  // b.any
   82394:	d4000021 	svc	#0x1
   82398:	14000016 	b	823f0 <shell_controller+0x1e4>
   8239c:	f0000000 	adrp	x0, 85000 <exception_handler+0x70>
   823a0:	912e0001 	add	x1, x0, #0xb80
   823a4:	f9400fe0 	ldr	x0, [sp, #24]
   823a8:	94000228 	bl	82c48 <strcmp>
   823ac:	7100001f 	cmp	w0, #0x0
   823b0:	54000061 	b.ne	823bc <shell_controller+0x1b0>  // b.any
   823b4:	d4000041 	svc	#0x2
   823b8:	1400000e 	b	823f0 <shell_controller+0x1e4>
   823bc:	f0000000 	adrp	x0, 85000 <exception_handler+0x70>
   823c0:	912e4001 	add	x1, x0, #0xb90
   823c4:	f9400fe0 	ldr	x0, [sp, #24]
   823c8:	94000220 	bl	82c48 <strcmp>
   823cc:	7100001f 	cmp	w0, #0x0
   823d0:	54000061 	b.ne	823dc <shell_controller+0x1d0>  // b.any
   823d4:	d4000061 	svc	#0x3
   823d8:	14000006 	b	823f0 <shell_controller+0x1e4>
   823dc:	f0000000 	adrp	x0, 85000 <exception_handler+0x70>
   823e0:	912e8000 	add	x0, x0, #0xba0
   823e4:	94000529 	bl	83888 <uart_puts>
   823e8:	14000002 	b	823f0 <shell_controller+0x1e4>
   823ec:	d503201f 	nop
   823f0:	a8c27bfd 	ldp	x29, x30, [sp], #32
   823f4:	d65f03c0 	ret

00000000000823f8 <vsprintf>:
   823f8:	f81a0ff3 	str	x19, [sp, #-96]!
   823fc:	f9000fe0 	str	x0, [sp, #24]
   82400:	f9000be1 	str	x1, [sp, #16]
   82404:	aa0203f3 	mov	x19, x2
   82408:	f9400fe0 	ldr	x0, [sp, #24]
   8240c:	f9001fe0 	str	x0, [sp, #56]
   82410:	f9400fe0 	ldr	x0, [sp, #24]
   82414:	f100001f 	cmp	x0, #0x0
   82418:	54000080 	b.eq	82428 <vsprintf+0x30>  // b.none
   8241c:	f9400be0 	ldr	x0, [sp, #16]
   82420:	f100001f 	cmp	x0, #0x0
   82424:	54000061 	b.ne	82430 <vsprintf+0x38>  // b.any
   82428:	52800000 	mov	w0, #0x0                   	// #0
   8242c:	14000164 	b	829bc <vsprintf+0x5c4>
   82430:	f9002fff 	str	xzr, [sp, #88]
   82434:	14000159 	b	82998 <vsprintf+0x5a0>
   82438:	f9400be0 	ldr	x0, [sp, #16]
   8243c:	39400000 	ldrb	w0, [x0]
   82440:	7100941f 	cmp	w0, #0x25
   82444:	54002921 	b.ne	82968 <vsprintf+0x570>  // b.any
   82448:	f9400be0 	ldr	x0, [sp, #16]
   8244c:	91000400 	add	x0, x0, #0x1
   82450:	f9000be0 	str	x0, [sp, #16]
   82454:	f9400be0 	ldr	x0, [sp, #16]
   82458:	39400000 	ldrb	w0, [x0]
   8245c:	7100941f 	cmp	w0, #0x25
   82460:	54002880 	b.eq	82970 <vsprintf+0x578>  // b.none
   82464:	b90057ff 	str	wzr, [sp, #84]
   82468:	14000010 	b	824a8 <vsprintf+0xb0>
   8246c:	b94057e1 	ldr	w1, [sp, #84]
   82470:	2a0103e0 	mov	w0, w1
   82474:	531e7400 	lsl	w0, w0, #2
   82478:	0b010000 	add	w0, w0, w1
   8247c:	531f7800 	lsl	w0, w0, #1
   82480:	b90057e0 	str	w0, [sp, #84]
   82484:	f9400be0 	ldr	x0, [sp, #16]
   82488:	39400000 	ldrb	w0, [x0]
   8248c:	5100c000 	sub	w0, w0, #0x30
   82490:	b94057e1 	ldr	w1, [sp, #84]
   82494:	0b000020 	add	w0, w1, w0
   82498:	b90057e0 	str	w0, [sp, #84]
   8249c:	f9400be0 	ldr	x0, [sp, #16]
   824a0:	91000400 	add	x0, x0, #0x1
   824a4:	f9000be0 	str	x0, [sp, #16]
   824a8:	f9400be0 	ldr	x0, [sp, #16]
   824ac:	39400000 	ldrb	w0, [x0]
   824b0:	7100bc1f 	cmp	w0, #0x2f
   824b4:	540000a9 	b.ls	824c8 <vsprintf+0xd0>  // b.plast
   824b8:	f9400be0 	ldr	x0, [sp, #16]
   824bc:	39400000 	ldrb	w0, [x0]
   824c0:	7100e41f 	cmp	w0, #0x39
   824c4:	54fffd49 	b.ls	8246c <vsprintf+0x74>  // b.plast
   824c8:	f9400be0 	ldr	x0, [sp, #16]
   824cc:	39400000 	ldrb	w0, [x0]
   824d0:	7101b01f 	cmp	w0, #0x6c
   824d4:	54000081 	b.ne	824e4 <vsprintf+0xec>  // b.any
   824d8:	f9400be0 	ldr	x0, [sp, #16]
   824dc:	91000400 	add	x0, x0, #0x1
   824e0:	f9000be0 	str	x0, [sp, #16]
   824e4:	f9400be0 	ldr	x0, [sp, #16]
   824e8:	39400000 	ldrb	w0, [x0]
   824ec:	71018c1f 	cmp	w0, #0x63
   824f0:	54000441 	b.ne	82578 <vsprintf+0x180>  // b.any
   824f4:	b9401a61 	ldr	w1, [x19, #24]
   824f8:	f9400260 	ldr	x0, [x19]
   824fc:	7100003f 	cmp	w1, #0x0
   82500:	540000ab 	b.lt	82514 <vsprintf+0x11c>  // b.tstop
   82504:	91002c01 	add	x1, x0, #0xb
   82508:	927df021 	and	x1, x1, #0xfffffffffffffff8
   8250c:	f9000261 	str	x1, [x19]
   82510:	1400000d 	b	82544 <vsprintf+0x14c>
   82514:	11002022 	add	w2, w1, #0x8
   82518:	b9001a62 	str	w2, [x19, #24]
   8251c:	b9401a62 	ldr	w2, [x19, #24]
   82520:	7100005f 	cmp	w2, #0x0
   82524:	540000ad 	b.le	82538 <vsprintf+0x140>
   82528:	91002c01 	add	x1, x0, #0xb
   8252c:	927df021 	and	x1, x1, #0xfffffffffffffff8
   82530:	f9000261 	str	x1, [x19]
   82534:	14000004 	b	82544 <vsprintf+0x14c>
   82538:	f9400662 	ldr	x2, [x19, #8]
   8253c:	93407c20 	sxtw	x0, w1
   82540:	8b000040 	add	x0, x2, x0
   82544:	b9400000 	ldr	w0, [x0]
   82548:	93407c00 	sxtw	x0, w0
   8254c:	f9002fe0 	str	x0, [sp, #88]
   82550:	f9400fe0 	ldr	x0, [sp, #24]
   82554:	91000401 	add	x1, x0, #0x1
   82558:	f9000fe1 	str	x1, [sp, #24]
   8255c:	f9402fe1 	ldr	x1, [sp, #88]
   82560:	12001c21 	and	w1, w1, #0xff
   82564:	39000001 	strb	w1, [x0]
   82568:	f9400be0 	ldr	x0, [sp, #16]
   8256c:	91000400 	add	x0, x0, #0x1
   82570:	f9000be0 	str	x0, [sp, #16]
   82574:	14000109 	b	82998 <vsprintf+0x5a0>
   82578:	f9400be0 	ldr	x0, [sp, #16]
   8257c:	39400000 	ldrb	w0, [x0]
   82580:	7101901f 	cmp	w0, #0x64
   82584:	54000ee1 	b.ne	82760 <vsprintf+0x368>  // b.any
   82588:	b9401a61 	ldr	w1, [x19, #24]
   8258c:	f9400260 	ldr	x0, [x19]
   82590:	7100003f 	cmp	w1, #0x0
   82594:	540000ab 	b.lt	825a8 <vsprintf+0x1b0>  // b.tstop
   82598:	91002c01 	add	x1, x0, #0xb
   8259c:	927df021 	and	x1, x1, #0xfffffffffffffff8
   825a0:	f9000261 	str	x1, [x19]
   825a4:	1400000d 	b	825d8 <vsprintf+0x1e0>
   825a8:	11002022 	add	w2, w1, #0x8
   825ac:	b9001a62 	str	w2, [x19, #24]
   825b0:	b9401a62 	ldr	w2, [x19, #24]
   825b4:	7100005f 	cmp	w2, #0x0
   825b8:	540000ad 	b.le	825cc <vsprintf+0x1d4>
   825bc:	91002c01 	add	x1, x0, #0xb
   825c0:	927df021 	and	x1, x1, #0xfffffffffffffff8
   825c4:	f9000261 	str	x1, [x19]
   825c8:	14000004 	b	825d8 <vsprintf+0x1e0>
   825cc:	f9400662 	ldr	x2, [x19, #8]
   825d0:	93407c20 	sxtw	x0, w1
   825d4:	8b000040 	add	x0, x2, x0
   825d8:	b9400000 	ldr	w0, [x0]
   825dc:	93407c00 	sxtw	x0, w0
   825e0:	f9002fe0 	str	x0, [sp, #88]
   825e4:	b90053ff 	str	wzr, [sp, #80]
   825e8:	f9402fe0 	ldr	x0, [sp, #88]
   825ec:	7100001f 	cmp	w0, #0x0
   825f0:	540000ea 	b.ge	8260c <vsprintf+0x214>  // b.tcont
   825f4:	f9402fe0 	ldr	x0, [sp, #88]
   825f8:	cb0003e0 	neg	x0, x0
   825fc:	f9002fe0 	str	x0, [sp, #88]
   82600:	b94053e0 	ldr	w0, [sp, #80]
   82604:	11000400 	add	w0, w0, #0x1
   82608:	b90053e0 	str	w0, [sp, #80]
   8260c:	f9402fe1 	ldr	x1, [sp, #88]
   82610:	92b44ec0 	mov	x0, #0xffffffff5d89ffff    	// #-2725642241
   82614:	f2c8af00 	movk	x0, #0x4578, lsl #32
   82618:	f2e02c60 	movk	x0, #0x163, lsl #48
   8261c:	eb00003f 	cmp	x1, x0
   82620:	540000ad 	b.le	82634 <vsprintf+0x23c>
   82624:	92b44ec0 	mov	x0, #0xffffffff5d89ffff    	// #-2725642241
   82628:	f2c8af00 	movk	x0, #0x4578, lsl #32
   8262c:	f2e02c60 	movk	x0, #0x163, lsl #48
   82630:	f9002fe0 	str	x0, [sp, #88]
   82634:	52800240 	mov	w0, #0x12                  	// #18
   82638:	b9004fe0 	str	w0, [sp, #76]
   8263c:	b9804fe0 	ldrsw	x0, [sp, #76]
   82640:	910083e1 	add	x1, sp, #0x20
   82644:	3820683f 	strb	wzr, [x1, x0]
   82648:	f9402fe1 	ldr	x1, [sp, #88]
   8264c:	b203e7e0 	mov	x0, #0x6666666666666666    	// #7378697629483820646
   82650:	f28ccce0 	movk	x0, #0x6667
   82654:	9b407c20 	smulh	x0, x1, x0
   82658:	9342fc02 	asr	x2, x0, #2
   8265c:	937ffc20 	asr	x0, x1, #63
   82660:	cb000042 	sub	x2, x2, x0
   82664:	aa0203e0 	mov	x0, x2
   82668:	d37ef400 	lsl	x0, x0, #2
   8266c:	8b020000 	add	x0, x0, x2
   82670:	d37ff800 	lsl	x0, x0, #1
   82674:	cb000022 	sub	x2, x1, x0
   82678:	12001c40 	and	w0, w2, #0xff
   8267c:	b9404fe1 	ldr	w1, [sp, #76]
   82680:	51000421 	sub	w1, w1, #0x1
   82684:	b9004fe1 	str	w1, [sp, #76]
   82688:	1100c000 	add	w0, w0, #0x30
   8268c:	12001c02 	and	w2, w0, #0xff
   82690:	b9804fe0 	ldrsw	x0, [sp, #76]
   82694:	910083e1 	add	x1, sp, #0x20
   82698:	38206822 	strb	w2, [x1, x0]
   8269c:	f9402fe0 	ldr	x0, [sp, #88]
   826a0:	b203e7e1 	mov	x1, #0x6666666666666666    	// #7378697629483820646
   826a4:	f28ccce1 	movk	x1, #0x6667
   826a8:	9b417c01 	smulh	x1, x0, x1
   826ac:	9342fc21 	asr	x1, x1, #2
   826b0:	937ffc00 	asr	x0, x0, #63
   826b4:	cb000020 	sub	x0, x1, x0
   826b8:	f9002fe0 	str	x0, [sp, #88]
   826bc:	f9402fe0 	ldr	x0, [sp, #88]
   826c0:	f100001f 	cmp	x0, #0x0
   826c4:	54000080 	b.eq	826d4 <vsprintf+0x2dc>  // b.none
   826c8:	b9404fe0 	ldr	w0, [sp, #76]
   826cc:	7100001f 	cmp	w0, #0x0
   826d0:	54fffbcc 	b.gt	82648 <vsprintf+0x250>
   826d4:	b94053e0 	ldr	w0, [sp, #80]
   826d8:	7100001f 	cmp	w0, #0x0
   826dc:	54000100 	b.eq	826fc <vsprintf+0x304>  // b.none
   826e0:	b9404fe0 	ldr	w0, [sp, #76]
   826e4:	51000400 	sub	w0, w0, #0x1
   826e8:	b9004fe0 	str	w0, [sp, #76]
   826ec:	b9804fe0 	ldrsw	x0, [sp, #76]
   826f0:	910083e1 	add	x1, sp, #0x20
   826f4:	528005a2 	mov	w2, #0x2d                  	// #45
   826f8:	38206822 	strb	w2, [x1, x0]
   826fc:	b94057e0 	ldr	w0, [sp, #84]
   82700:	7100001f 	cmp	w0, #0x0
   82704:	5400024d 	b.le	8274c <vsprintf+0x354>
   82708:	b94057e0 	ldr	w0, [sp, #84]
   8270c:	7100441f 	cmp	w0, #0x11
   82710:	540001ec 	b.gt	8274c <vsprintf+0x354>
   82714:	14000008 	b	82734 <vsprintf+0x33c>
   82718:	b9404fe0 	ldr	w0, [sp, #76]
   8271c:	51000400 	sub	w0, w0, #0x1
   82720:	b9004fe0 	str	w0, [sp, #76]
   82724:	b9804fe0 	ldrsw	x0, [sp, #76]
   82728:	910083e1 	add	x1, sp, #0x20
   8272c:	52800402 	mov	w2, #0x20                  	// #32
   82730:	38206822 	strb	w2, [x1, x0]
   82734:	52800241 	mov	w1, #0x12                  	// #18
   82738:	b94057e0 	ldr	w0, [sp, #84]
   8273c:	4b000020 	sub	w0, w1, w0
   82740:	b9404fe1 	ldr	w1, [sp, #76]
   82744:	6b00003f 	cmp	w1, w0
   82748:	54fffe8c 	b.gt	82718 <vsprintf+0x320>
   8274c:	910083e1 	add	x1, sp, #0x20
   82750:	b9804fe0 	ldrsw	x0, [sp, #76]
   82754:	8b000020 	add	x0, x1, x0
   82758:	f90023e0 	str	x0, [sp, #64]
   8275c:	1400006f 	b	82918 <vsprintf+0x520>
   82760:	f9400be0 	ldr	x0, [sp, #16]
   82764:	39400000 	ldrb	w0, [x0]
   82768:	7101e01f 	cmp	w0, #0x78
   8276c:	54000a21 	b.ne	828b0 <vsprintf+0x4b8>  // b.any
   82770:	b9401a61 	ldr	w1, [x19, #24]
   82774:	f9400260 	ldr	x0, [x19]
   82778:	7100003f 	cmp	w1, #0x0
   8277c:	540000ab 	b.lt	82790 <vsprintf+0x398>  // b.tstop
   82780:	91003c01 	add	x1, x0, #0xf
   82784:	927df021 	and	x1, x1, #0xfffffffffffffff8
   82788:	f9000261 	str	x1, [x19]
   8278c:	1400000d 	b	827c0 <vsprintf+0x3c8>
   82790:	11002022 	add	w2, w1, #0x8
   82794:	b9001a62 	str	w2, [x19, #24]
   82798:	b9401a62 	ldr	w2, [x19, #24]
   8279c:	7100005f 	cmp	w2, #0x0
   827a0:	540000ad 	b.le	827b4 <vsprintf+0x3bc>
   827a4:	91003c01 	add	x1, x0, #0xf
   827a8:	927df021 	and	x1, x1, #0xfffffffffffffff8
   827ac:	f9000261 	str	x1, [x19]
   827b0:	14000004 	b	827c0 <vsprintf+0x3c8>
   827b4:	f9400662 	ldr	x2, [x19, #8]
   827b8:	93407c20 	sxtw	x0, w1
   827bc:	8b000040 	add	x0, x2, x0
   827c0:	f9400000 	ldr	x0, [x0]
   827c4:	f9002fe0 	str	x0, [sp, #88]
   827c8:	52800200 	mov	w0, #0x10                  	// #16
   827cc:	b9004fe0 	str	w0, [sp, #76]
   827d0:	b9804fe0 	ldrsw	x0, [sp, #76]
   827d4:	910083e1 	add	x1, sp, #0x20
   827d8:	3820683f 	strb	wzr, [x1, x0]
   827dc:	f9402fe0 	ldr	x0, [sp, #88]
   827e0:	12001c00 	and	w0, w0, #0xff
   827e4:	12000c00 	and	w0, w0, #0xf
   827e8:	3900dfe0 	strb	w0, [sp, #55]
   827ec:	3940dfe0 	ldrb	w0, [sp, #55]
   827f0:	7100241f 	cmp	w0, #0x9
   827f4:	54000069 	b.ls	82800 <vsprintf+0x408>  // b.plast
   827f8:	528006e0 	mov	w0, #0x37                  	// #55
   827fc:	14000002 	b	82804 <vsprintf+0x40c>
   82800:	52800600 	mov	w0, #0x30                  	// #48
   82804:	b9404fe1 	ldr	w1, [sp, #76]
   82808:	51000421 	sub	w1, w1, #0x1
   8280c:	b9004fe1 	str	w1, [sp, #76]
   82810:	3940dfe1 	ldrb	w1, [sp, #55]
   82814:	0b010000 	add	w0, w0, w1
   82818:	12001c02 	and	w2, w0, #0xff
   8281c:	b9804fe0 	ldrsw	x0, [sp, #76]
   82820:	910083e1 	add	x1, sp, #0x20
   82824:	38206822 	strb	w2, [x1, x0]
   82828:	f9402fe0 	ldr	x0, [sp, #88]
   8282c:	9344fc00 	asr	x0, x0, #4
   82830:	f9002fe0 	str	x0, [sp, #88]
   82834:	f9402fe0 	ldr	x0, [sp, #88]
   82838:	f100001f 	cmp	x0, #0x0
   8283c:	54000080 	b.eq	8284c <vsprintf+0x454>  // b.none
   82840:	b9404fe0 	ldr	w0, [sp, #76]
   82844:	7100001f 	cmp	w0, #0x0
   82848:	54fffcac 	b.gt	827dc <vsprintf+0x3e4>
   8284c:	b94057e0 	ldr	w0, [sp, #84]
   82850:	7100001f 	cmp	w0, #0x0
   82854:	5400024d 	b.le	8289c <vsprintf+0x4a4>
   82858:	b94057e0 	ldr	w0, [sp, #84]
   8285c:	7100401f 	cmp	w0, #0x10
   82860:	540001ec 	b.gt	8289c <vsprintf+0x4a4>
   82864:	14000008 	b	82884 <vsprintf+0x48c>
   82868:	b9404fe0 	ldr	w0, [sp, #76]
   8286c:	51000400 	sub	w0, w0, #0x1
   82870:	b9004fe0 	str	w0, [sp, #76]
   82874:	b9804fe0 	ldrsw	x0, [sp, #76]
   82878:	910083e1 	add	x1, sp, #0x20
   8287c:	52800602 	mov	w2, #0x30                  	// #48
   82880:	38206822 	strb	w2, [x1, x0]
   82884:	52800201 	mov	w1, #0x10                  	// #16
   82888:	b94057e0 	ldr	w0, [sp, #84]
   8288c:	4b000020 	sub	w0, w1, w0
   82890:	b9404fe1 	ldr	w1, [sp, #76]
   82894:	6b00003f 	cmp	w1, w0
   82898:	54fffe8c 	b.gt	82868 <vsprintf+0x470>
   8289c:	910083e1 	add	x1, sp, #0x20
   828a0:	b9804fe0 	ldrsw	x0, [sp, #76]
   828a4:	8b000020 	add	x0, x1, x0
   828a8:	f90023e0 	str	x0, [sp, #64]
   828ac:	1400001b 	b	82918 <vsprintf+0x520>
   828b0:	f9400be0 	ldr	x0, [sp, #16]
   828b4:	39400000 	ldrb	w0, [x0]
   828b8:	7101cc1f 	cmp	w0, #0x73
   828bc:	54000681 	b.ne	8298c <vsprintf+0x594>  // b.any
   828c0:	b9401a61 	ldr	w1, [x19, #24]
   828c4:	f9400260 	ldr	x0, [x19]
   828c8:	7100003f 	cmp	w1, #0x0
   828cc:	540000ab 	b.lt	828e0 <vsprintf+0x4e8>  // b.tstop
   828d0:	91003c01 	add	x1, x0, #0xf
   828d4:	927df021 	and	x1, x1, #0xfffffffffffffff8
   828d8:	f9000261 	str	x1, [x19]
   828dc:	1400000d 	b	82910 <vsprintf+0x518>
   828e0:	11002022 	add	w2, w1, #0x8
   828e4:	b9001a62 	str	w2, [x19, #24]
   828e8:	b9401a62 	ldr	w2, [x19, #24]
   828ec:	7100005f 	cmp	w2, #0x0
   828f0:	540000ad 	b.le	82904 <vsprintf+0x50c>
   828f4:	91003c01 	add	x1, x0, #0xf
   828f8:	927df021 	and	x1, x1, #0xfffffffffffffff8
   828fc:	f9000261 	str	x1, [x19]
   82900:	14000004 	b	82910 <vsprintf+0x518>
   82904:	f9400662 	ldr	x2, [x19, #8]
   82908:	93407c20 	sxtw	x0, w1
   8290c:	8b000040 	add	x0, x2, x0
   82910:	f9400000 	ldr	x0, [x0]
   82914:	f90023e0 	str	x0, [sp, #64]
   82918:	f94023e0 	ldr	x0, [sp, #64]
   8291c:	f100001f 	cmp	x0, #0x0
   82920:	540001a1 	b.ne	82954 <vsprintf+0x55c>  // b.any
   82924:	f0000000 	adrp	x0, 85000 <exception_handler+0x70>
   82928:	912f0000 	add	x0, x0, #0xbc0
   8292c:	f90023e0 	str	x0, [sp, #64]
   82930:	14000009 	b	82954 <vsprintf+0x55c>
   82934:	f94023e1 	ldr	x1, [sp, #64]
   82938:	91000420 	add	x0, x1, #0x1
   8293c:	f90023e0 	str	x0, [sp, #64]
   82940:	f9400fe0 	ldr	x0, [sp, #24]
   82944:	91000402 	add	x2, x0, #0x1
   82948:	f9000fe2 	str	x2, [sp, #24]
   8294c:	39400021 	ldrb	w1, [x1]
   82950:	39000001 	strb	w1, [x0]
   82954:	f94023e0 	ldr	x0, [sp, #64]
   82958:	39400000 	ldrb	w0, [x0]
   8295c:	7100001f 	cmp	w0, #0x0
   82960:	54fffea1 	b.ne	82934 <vsprintf+0x53c>  // b.any
   82964:	1400000a 	b	8298c <vsprintf+0x594>
   82968:	d503201f 	nop
   8296c:	14000002 	b	82974 <vsprintf+0x57c>
   82970:	d503201f 	nop
   82974:	f9400fe0 	ldr	x0, [sp, #24]
   82978:	91000401 	add	x1, x0, #0x1
   8297c:	f9000fe1 	str	x1, [sp, #24]
   82980:	f9400be1 	ldr	x1, [sp, #16]
   82984:	39400021 	ldrb	w1, [x1]
   82988:	39000001 	strb	w1, [x0]
   8298c:	f9400be0 	ldr	x0, [sp, #16]
   82990:	91000400 	add	x0, x0, #0x1
   82994:	f9000be0 	str	x0, [sp, #16]
   82998:	f9400be0 	ldr	x0, [sp, #16]
   8299c:	39400000 	ldrb	w0, [x0]
   829a0:	7100001f 	cmp	w0, #0x0
   829a4:	54ffd4a1 	b.ne	82438 <vsprintf+0x40>  // b.any
   829a8:	f9400fe0 	ldr	x0, [sp, #24]
   829ac:	3900001f 	strb	wzr, [x0]
   829b0:	f9400fe1 	ldr	x1, [sp, #24]
   829b4:	f9401fe0 	ldr	x0, [sp, #56]
   829b8:	cb000020 	sub	x0, x1, x0
   829bc:	f84607f3 	ldr	x19, [sp], #96
   829c0:	d65f03c0 	ret

00000000000829c4 <sprintf>:
   829c4:	a9af7bfd 	stp	x29, x30, [sp, #-272]!
   829c8:	910003fd 	mov	x29, sp
   829cc:	f9001fe0 	str	x0, [sp, #56]
   829d0:	f9001be1 	str	x1, [sp, #48]
   829d4:	f90073e2 	str	x2, [sp, #224]
   829d8:	f90077e3 	str	x3, [sp, #232]
   829dc:	f9007be4 	str	x4, [sp, #240]
   829e0:	f9007fe5 	str	x5, [sp, #248]
   829e4:	f90083e6 	str	x6, [sp, #256]
   829e8:	f90087e7 	str	x7, [sp, #264]
   829ec:	3d801be0 	str	q0, [sp, #96]
   829f0:	3d801fe1 	str	q1, [sp, #112]
   829f4:	3d8023e2 	str	q2, [sp, #128]
   829f8:	3d8027e3 	str	q3, [sp, #144]
   829fc:	3d802be4 	str	q4, [sp, #160]
   82a00:	3d802fe5 	str	q5, [sp, #176]
   82a04:	3d8033e6 	str	q6, [sp, #192]
   82a08:	3d8037e7 	str	q7, [sp, #208]
   82a0c:	910443e0 	add	x0, sp, #0x110
   82a10:	f90023e0 	str	x0, [sp, #64]
   82a14:	910443e0 	add	x0, sp, #0x110
   82a18:	f90027e0 	str	x0, [sp, #72]
   82a1c:	910383e0 	add	x0, sp, #0xe0
   82a20:	f9002be0 	str	x0, [sp, #80]
   82a24:	128005e0 	mov	w0, #0xffffffd0            	// #-48
   82a28:	b9005be0 	str	w0, [sp, #88]
   82a2c:	12800fe0 	mov	w0, #0xffffff80            	// #-128
   82a30:	b9005fe0 	str	w0, [sp, #92]
   82a34:	910043e0 	add	x0, sp, #0x10
   82a38:	910103e1 	add	x1, sp, #0x40
   82a3c:	ad400420 	ldp	q0, q1, [x1]
   82a40:	ad000400 	stp	q0, q1, [x0]
   82a44:	910043e0 	add	x0, sp, #0x10
   82a48:	aa0003e2 	mov	x2, x0
   82a4c:	f9401be1 	ldr	x1, [sp, #48]
   82a50:	f9401fe0 	ldr	x0, [sp, #56]
   82a54:	97fffe69 	bl	823f8 <vsprintf>
   82a58:	a8d17bfd 	ldp	x29, x30, [sp], #272
   82a5c:	d65f03c0 	ret

0000000000082a60 <simple_malloc>:
   82a60:	d10083ff 	sub	sp, sp, #0x20
   82a64:	b9000fe0 	str	w0, [sp, #12]
   82a68:	d0000420 	adrp	x0, 108000 <ustack_pool+0x3ff20>
   82a6c:	9103a000 	add	x0, x0, #0xe8
   82a70:	f9400000 	ldr	x0, [x0]
   82a74:	d37ef400 	lsl	x0, x0, #2
   82a78:	91418001 	add	x1, x0, #0x60, lsl #12
   82a7c:	b2404be0 	mov	x0, #0x7ffff               	// #524287
   82a80:	eb00003f 	cmp	x1, x0
   82a84:	54000069 	b.ls	82a90 <simple_malloc+0x30>  // b.plast
   82a88:	d2800000 	mov	x0, #0x0                   	// #0
   82a8c:	14000010 	b	82acc <simple_malloc+0x6c>
   82a90:	d0000420 	adrp	x0, 108000 <ustack_pool+0x3ff20>
   82a94:	9103a000 	add	x0, x0, #0xe8
   82a98:	f9400000 	ldr	x0, [x0]
   82a9c:	d37ef400 	lsl	x0, x0, #2
   82aa0:	91418000 	add	x0, x0, #0x60, lsl #12
   82aa4:	f9000fe0 	str	x0, [sp, #24]
   82aa8:	b9400fe1 	ldr	w1, [sp, #12]
   82aac:	d0000420 	adrp	x0, 108000 <ustack_pool+0x3ff20>
   82ab0:	9103a000 	add	x0, x0, #0xe8
   82ab4:	f9400000 	ldr	x0, [x0]
   82ab8:	8b000021 	add	x1, x1, x0
   82abc:	d0000420 	adrp	x0, 108000 <ustack_pool+0x3ff20>
   82ac0:	9103a000 	add	x0, x0, #0xe8
   82ac4:	f9000001 	str	x1, [x0]
   82ac8:	f9400fe0 	ldr	x0, [sp, #24]
   82acc:	910083ff 	add	sp, sp, #0x20
   82ad0:	d65f03c0 	ret

0000000000082ad4 <oct2bin>:
   82ad4:	d10083ff 	sub	sp, sp, #0x20
   82ad8:	f90007e0 	str	x0, [sp, #8]
   82adc:	b90007e1 	str	w1, [sp, #4]
   82ae0:	b9001fff 	str	wzr, [sp, #28]
   82ae4:	1400000c 	b	82b14 <oct2bin+0x40>
   82ae8:	b9401fe0 	ldr	w0, [sp, #28]
   82aec:	531d7000 	lsl	w0, w0, #3
   82af0:	b9001fe0 	str	w0, [sp, #28]
   82af4:	f94007e0 	ldr	x0, [sp, #8]
   82af8:	91000401 	add	x1, x0, #0x1
   82afc:	f90007e1 	str	x1, [sp, #8]
   82b00:	39400000 	ldrb	w0, [x0]
   82b04:	5100c000 	sub	w0, w0, #0x30
   82b08:	b9401fe1 	ldr	w1, [sp, #28]
   82b0c:	0b000020 	add	w0, w1, w0
   82b10:	b9001fe0 	str	w0, [sp, #28]
   82b14:	b94007e0 	ldr	w0, [sp, #4]
   82b18:	51000401 	sub	w1, w0, #0x1
   82b1c:	b90007e1 	str	w1, [sp, #4]
   82b20:	7100001f 	cmp	w0, #0x0
   82b24:	54fffe2c 	b.gt	82ae8 <oct2bin+0x14>
   82b28:	b9401fe0 	ldr	w0, [sp, #28]
   82b2c:	910083ff 	add	sp, sp, #0x20
   82b30:	d65f03c0 	ret

0000000000082b34 <hex2bin>:
   82b34:	d10083ff 	sub	sp, sp, #0x20
   82b38:	f90007e0 	str	x0, [sp, #8]
   82b3c:	b90007e1 	str	w1, [sp, #4]
   82b40:	b9001fff 	str	wzr, [sp, #28]
   82b44:	14000039 	b	82c28 <hex2bin+0xf4>
   82b48:	b9401fe0 	ldr	w0, [sp, #28]
   82b4c:	531c6c00 	lsl	w0, w0, #4
   82b50:	b9001fe0 	str	w0, [sp, #28]
   82b54:	f94007e0 	ldr	x0, [sp, #8]
   82b58:	39400000 	ldrb	w0, [x0]
   82b5c:	7100bc1f 	cmp	w0, #0x2f
   82b60:	540001c9 	b.ls	82b98 <hex2bin+0x64>  // b.plast
   82b64:	f94007e0 	ldr	x0, [sp, #8]
   82b68:	39400000 	ldrb	w0, [x0]
   82b6c:	7100e41f 	cmp	w0, #0x39
   82b70:	54000148 	b.hi	82b98 <hex2bin+0x64>  // b.pmore
   82b74:	f94007e0 	ldr	x0, [sp, #8]
   82b78:	91000401 	add	x1, x0, #0x1
   82b7c:	f90007e1 	str	x1, [sp, #8]
   82b80:	39400000 	ldrb	w0, [x0]
   82b84:	5100c000 	sub	w0, w0, #0x30
   82b88:	b9401fe1 	ldr	w1, [sp, #28]
   82b8c:	0b000020 	add	w0, w1, w0
   82b90:	b9001fe0 	str	w0, [sp, #28]
   82b94:	14000025 	b	82c28 <hex2bin+0xf4>
   82b98:	f94007e0 	ldr	x0, [sp, #8]
   82b9c:	39400000 	ldrb	w0, [x0]
   82ba0:	7101801f 	cmp	w0, #0x60
   82ba4:	540001c9 	b.ls	82bdc <hex2bin+0xa8>  // b.plast
   82ba8:	f94007e0 	ldr	x0, [sp, #8]
   82bac:	39400000 	ldrb	w0, [x0]
   82bb0:	7101981f 	cmp	w0, #0x66
   82bb4:	54000148 	b.hi	82bdc <hex2bin+0xa8>  // b.pmore
   82bb8:	f94007e0 	ldr	x0, [sp, #8]
   82bbc:	91000401 	add	x1, x0, #0x1
   82bc0:	f90007e1 	str	x1, [sp, #8]
   82bc4:	39400000 	ldrb	w0, [x0]
   82bc8:	51015c00 	sub	w0, w0, #0x57
   82bcc:	b9401fe1 	ldr	w1, [sp, #28]
   82bd0:	0b000020 	add	w0, w1, w0
   82bd4:	b9001fe0 	str	w0, [sp, #28]
   82bd8:	14000014 	b	82c28 <hex2bin+0xf4>
   82bdc:	f94007e0 	ldr	x0, [sp, #8]
   82be0:	39400000 	ldrb	w0, [x0]
   82be4:	7101001f 	cmp	w0, #0x40
   82be8:	540001c9 	b.ls	82c20 <hex2bin+0xec>  // b.plast
   82bec:	f94007e0 	ldr	x0, [sp, #8]
   82bf0:	39400000 	ldrb	w0, [x0]
   82bf4:	7101181f 	cmp	w0, #0x46
   82bf8:	54000148 	b.hi	82c20 <hex2bin+0xec>  // b.pmore
   82bfc:	f94007e0 	ldr	x0, [sp, #8]
   82c00:	91000401 	add	x1, x0, #0x1
   82c04:	f90007e1 	str	x1, [sp, #8]
   82c08:	39400000 	ldrb	w0, [x0]
   82c0c:	5100dc00 	sub	w0, w0, #0x37
   82c10:	b9401fe1 	ldr	w1, [sp, #28]
   82c14:	0b000020 	add	w0, w1, w0
   82c18:	b9001fe0 	str	w0, [sp, #28]
   82c1c:	14000003 	b	82c28 <hex2bin+0xf4>
   82c20:	12800000 	mov	w0, #0xffffffff            	// #-1
   82c24:	14000007 	b	82c40 <hex2bin+0x10c>
   82c28:	b94007e0 	ldr	w0, [sp, #4]
   82c2c:	51000401 	sub	w1, w0, #0x1
   82c30:	b90007e1 	str	w1, [sp, #4]
   82c34:	7100001f 	cmp	w0, #0x0
   82c38:	54fff88c 	b.gt	82b48 <hex2bin+0x14>
   82c3c:	b9401fe0 	ldr	w0, [sp, #28]
   82c40:	910083ff 	add	sp, sp, #0x20
   82c44:	d65f03c0 	ret

0000000000082c48 <strcmp>:
   82c48:	d10043ff 	sub	sp, sp, #0x10
   82c4c:	f90007e0 	str	x0, [sp, #8]
   82c50:	f90003e1 	str	x1, [sp]
   82c54:	1400000d 	b	82c88 <strcmp+0x40>
   82c58:	f94007e0 	ldr	x0, [sp, #8]
   82c5c:	39400001 	ldrb	w1, [x0]
   82c60:	f94003e0 	ldr	x0, [sp]
   82c64:	39400000 	ldrb	w0, [x0]
   82c68:	6b00003f 	cmp	w1, w0
   82c6c:	54000181 	b.ne	82c9c <strcmp+0x54>  // b.any
   82c70:	f94007e0 	ldr	x0, [sp, #8]
   82c74:	91000400 	add	x0, x0, #0x1
   82c78:	f90007e0 	str	x0, [sp, #8]
   82c7c:	f94003e0 	ldr	x0, [sp]
   82c80:	91000400 	add	x0, x0, #0x1
   82c84:	f90003e0 	str	x0, [sp]
   82c88:	f94007e0 	ldr	x0, [sp, #8]
   82c8c:	39400000 	ldrb	w0, [x0]
   82c90:	7100001f 	cmp	w0, #0x0
   82c94:	54fffe21 	b.ne	82c58 <strcmp+0x10>  // b.any
   82c98:	14000002 	b	82ca0 <strcmp+0x58>
   82c9c:	d503201f 	nop
   82ca0:	f94007e0 	ldr	x0, [sp, #8]
   82ca4:	39400000 	ldrb	w0, [x0]
   82ca8:	2a0003e1 	mov	w1, w0
   82cac:	f94003e0 	ldr	x0, [sp]
   82cb0:	39400000 	ldrb	w0, [x0]
   82cb4:	4b000020 	sub	w0, w1, w0
   82cb8:	910043ff 	add	sp, sp, #0x10
   82cbc:	d65f03c0 	ret

0000000000082cc0 <memcmp>:
   82cc0:	d100c3ff 	sub	sp, sp, #0x30
   82cc4:	f9000fe0 	str	x0, [sp, #24]
   82cc8:	f9000be1 	str	x1, [sp, #16]
   82ccc:	b9000fe2 	str	w2, [sp, #12]
   82cd0:	f9400fe0 	ldr	x0, [sp, #24]
   82cd4:	f90017e0 	str	x0, [sp, #40]
   82cd8:	f9400be0 	ldr	x0, [sp, #16]
   82cdc:	f90013e0 	str	x0, [sp, #32]
   82ce0:	14000014 	b	82d30 <memcmp+0x70>
   82ce4:	f94017e0 	ldr	x0, [sp, #40]
   82ce8:	39400001 	ldrb	w1, [x0]
   82cec:	f94013e0 	ldr	x0, [sp, #32]
   82cf0:	39400000 	ldrb	w0, [x0]
   82cf4:	6b00003f 	cmp	w1, w0
   82cf8:	54000100 	b.eq	82d18 <memcmp+0x58>  // b.none
   82cfc:	f94017e0 	ldr	x0, [sp, #40]
   82d00:	39400000 	ldrb	w0, [x0]
   82d04:	2a0003e1 	mov	w1, w0
   82d08:	f94013e0 	ldr	x0, [sp, #32]
   82d0c:	39400000 	ldrb	w0, [x0]
   82d10:	4b000020 	sub	w0, w1, w0
   82d14:	1400000d 	b	82d48 <memcmp+0x88>
   82d18:	f94017e0 	ldr	x0, [sp, #40]
   82d1c:	91000400 	add	x0, x0, #0x1
   82d20:	f90017e0 	str	x0, [sp, #40]
   82d24:	f94013e0 	ldr	x0, [sp, #32]
   82d28:	91000400 	add	x0, x0, #0x1
   82d2c:	f90013e0 	str	x0, [sp, #32]
   82d30:	b9400fe0 	ldr	w0, [sp, #12]
   82d34:	51000401 	sub	w1, w0, #0x1
   82d38:	b9000fe1 	str	w1, [sp, #12]
   82d3c:	7100001f 	cmp	w0, #0x0
   82d40:	54fffd2c 	b.gt	82ce4 <memcmp+0x24>
   82d44:	52800000 	mov	w0, #0x0                   	// #0
   82d48:	9100c3ff 	add	sp, sp, #0x30
   82d4c:	d65f03c0 	ret

0000000000082d50 <strlen>:
   82d50:	d10083ff 	sub	sp, sp, #0x20
   82d54:	f90007e0 	str	x0, [sp, #8]
   82d58:	b9001fff 	str	wzr, [sp, #28]
   82d5c:	14000007 	b	82d78 <strlen+0x28>
   82d60:	b9401fe0 	ldr	w0, [sp, #28]
   82d64:	11000400 	add	w0, w0, #0x1
   82d68:	b9001fe0 	str	w0, [sp, #28]
   82d6c:	f94007e0 	ldr	x0, [sp, #8]
   82d70:	91000400 	add	x0, x0, #0x1
   82d74:	f90007e0 	str	x0, [sp, #8]
   82d78:	f94007e0 	ldr	x0, [sp, #8]
   82d7c:	39400000 	ldrb	w0, [x0]
   82d80:	7100001f 	cmp	w0, #0x0
   82d84:	54fffee1 	b.ne	82d60 <strlen+0x10>  // b.any
   82d88:	b9401fe0 	ldr	w0, [sp, #28]
   82d8c:	910083ff 	add	sp, sp, #0x20
   82d90:	d65f03c0 	ret

0000000000082d94 <strcpy>:
   82d94:	d10083ff 	sub	sp, sp, #0x20
   82d98:	f90007e0 	str	x0, [sp, #8]
   82d9c:	f90003e1 	str	x1, [sp]
   82da0:	b9001fff 	str	wzr, [sp, #28]
   82da4:	1400000c 	b	82dd4 <strcpy+0x40>
   82da8:	b9801fe0 	ldrsw	x0, [sp, #28]
   82dac:	f94003e1 	ldr	x1, [sp]
   82db0:	8b000021 	add	x1, x1, x0
   82db4:	b9801fe0 	ldrsw	x0, [sp, #28]
   82db8:	f94007e2 	ldr	x2, [sp, #8]
   82dbc:	8b000040 	add	x0, x2, x0
   82dc0:	39400021 	ldrb	w1, [x1]
   82dc4:	39000001 	strb	w1, [x0]
   82dc8:	b9401fe0 	ldr	w0, [sp, #28]
   82dcc:	11000400 	add	w0, w0, #0x1
   82dd0:	b9001fe0 	str	w0, [sp, #28]
   82dd4:	b9801fe0 	ldrsw	x0, [sp, #28]
   82dd8:	f94003e1 	ldr	x1, [sp]
   82ddc:	8b000020 	add	x0, x1, x0
   82de0:	39400000 	ldrb	w0, [x0]
   82de4:	7100001f 	cmp	w0, #0x0
   82de8:	54fffe01 	b.ne	82da8 <strcpy+0x14>  // b.any
   82dec:	b9801fe0 	ldrsw	x0, [sp, #28]
   82df0:	f94007e1 	ldr	x1, [sp, #8]
   82df4:	8b000020 	add	x0, x1, x0
   82df8:	3900001f 	strb	wzr, [x0]
   82dfc:	b9401fe0 	ldr	w0, [sp, #28]
   82e00:	910083ff 	add	sp, sp, #0x20
   82e04:	d65f03c0 	ret

0000000000082e08 <atoi>:
   82e08:	d10083ff 	sub	sp, sp, #0x20
   82e0c:	f90007e0 	str	x0, [sp, #8]
   82e10:	b9001fff 	str	wzr, [sp, #28]
   82e14:	52800020 	mov	w0, #0x1                   	// #1
   82e18:	b9001be0 	str	w0, [sp, #24]
   82e1c:	f94007e0 	ldr	x0, [sp, #8]
   82e20:	39400000 	ldrb	w0, [x0]
   82e24:	7100b41f 	cmp	w0, #0x2d
   82e28:	540002a1 	b.ne	82e7c <atoi+0x74>  // b.any
   82e2c:	12800000 	mov	w0, #0xffffffff            	// #-1
   82e30:	b9001be0 	str	w0, [sp, #24]
   82e34:	f94007e0 	ldr	x0, [sp, #8]
   82e38:	91000400 	add	x0, x0, #0x1
   82e3c:	f90007e0 	str	x0, [sp, #8]
   82e40:	1400000f 	b	82e7c <atoi+0x74>
   82e44:	b9401fe1 	ldr	w1, [sp, #28]
   82e48:	2a0103e0 	mov	w0, w1
   82e4c:	531e7400 	lsl	w0, w0, #2
   82e50:	0b010000 	add	w0, w0, w1
   82e54:	531f7800 	lsl	w0, w0, #1
   82e58:	2a0003e1 	mov	w1, w0
   82e5c:	f94007e0 	ldr	x0, [sp, #8]
   82e60:	39400000 	ldrb	w0, [x0]
   82e64:	5100c000 	sub	w0, w0, #0x30
   82e68:	0b000020 	add	w0, w1, w0
   82e6c:	b9001fe0 	str	w0, [sp, #28]
   82e70:	f94007e0 	ldr	x0, [sp, #8]
   82e74:	91000400 	add	x0, x0, #0x1
   82e78:	f90007e0 	str	x0, [sp, #8]
   82e7c:	f94007e0 	ldr	x0, [sp, #8]
   82e80:	39400000 	ldrb	w0, [x0]
   82e84:	7100bc1f 	cmp	w0, #0x2f
   82e88:	540000a9 	b.ls	82e9c <atoi+0x94>  // b.plast
   82e8c:	f94007e0 	ldr	x0, [sp, #8]
   82e90:	39400000 	ldrb	w0, [x0]
   82e94:	7100e41f 	cmp	w0, #0x39
   82e98:	54fffd69 	b.ls	82e44 <atoi+0x3c>  // b.plast
   82e9c:	b9401fe1 	ldr	w1, [sp, #28]
   82ea0:	b9401be0 	ldr	w0, [sp, #24]
   82ea4:	1b007c20 	mul	w0, w1, w0
   82ea8:	910083ff 	add	sp, sp, #0x20
   82eac:	d65f03c0 	ret

0000000000082eb0 <sys_get_taskid>:
   82eb0:	a9be7bfd 	stp	x29, x30, [sp, #-32]!
   82eb4:	910003fd 	mov	x29, sp
   82eb8:	f9000fe0 	str	x0, [sp, #24]
   82ebc:	940008c8 	bl	851dc <get_current>
   82ec0:	b9400000 	ldr	w0, [x0]
   82ec4:	2a0003e1 	mov	w1, w0
   82ec8:	f9400fe0 	ldr	x0, [sp, #24]
   82ecc:	f9000001 	str	x1, [x0]
   82ed0:	52800000 	mov	w0, #0x0                   	// #0
   82ed4:	a8c27bfd 	ldp	x29, x30, [sp], #32
   82ed8:	d65f03c0 	ret

0000000000082edc <sys_uart_read>:
   82edc:	a9bb7bfd 	stp	x29, x30, [sp, #-80]!
   82ee0:	910003fd 	mov	x29, sp
   82ee4:	f9000bf3 	str	x19, [sp, #16]
   82ee8:	f90017e0 	str	x0, [sp, #40]
   82eec:	f94017e0 	ldr	x0, [sp, #40]
   82ef0:	f9400000 	ldr	x0, [x0]
   82ef4:	f90023e0 	str	x0, [sp, #64]
   82ef8:	f94017e0 	ldr	x0, [sp, #40]
   82efc:	f9400400 	ldr	x0, [x0, #8]
   82f00:	b9003fe0 	str	w0, [sp, #60]
   82f04:	b9004fff 	str	wzr, [sp, #76]
   82f08:	1400000f 	b	82f44 <sys_uart_read+0x68>
   82f0c:	b9804fe0 	ldrsw	x0, [sp, #76]
   82f10:	f94023e1 	ldr	x1, [sp, #64]
   82f14:	8b000033 	add	x19, x1, x0
   82f18:	94000248 	bl	83838 <uart_getc>
   82f1c:	12001c00 	and	w0, w0, #0xff
   82f20:	39000260 	strb	w0, [x19]
   82f24:	b9804fe0 	ldrsw	x0, [sp, #76]
   82f28:	f94023e1 	ldr	x1, [sp, #64]
   82f2c:	8b000020 	add	x0, x1, x0
   82f30:	39400000 	ldrb	w0, [x0]
   82f34:	94000231 	bl	837f8 <uart_send>
   82f38:	b9404fe0 	ldr	w0, [sp, #76]
   82f3c:	11000400 	add	w0, w0, #0x1
   82f40:	b9004fe0 	str	w0, [sp, #76]
   82f44:	b9404fe0 	ldr	w0, [sp, #76]
   82f48:	b9403fe1 	ldr	w1, [sp, #60]
   82f4c:	6b00003f 	cmp	w1, w0
   82f50:	54fffde8 	b.hi	82f0c <sys_uart_read+0x30>  // b.pmore
   82f54:	b9403fe1 	ldr	w1, [sp, #60]
   82f58:	f94017e0 	ldr	x0, [sp, #40]
   82f5c:	f9000001 	str	x1, [x0]
   82f60:	52800000 	mov	w0, #0x0                   	// #0
   82f64:	f9400bf3 	ldr	x19, [sp, #16]
   82f68:	a8c57bfd 	ldp	x29, x30, [sp], #80
   82f6c:	d65f03c0 	ret

0000000000082f70 <sys_uart_write>:
   82f70:	a9bc7bfd 	stp	x29, x30, [sp, #-64]!
   82f74:	910003fd 	mov	x29, sp
   82f78:	f9000fe0 	str	x0, [sp, #24]
   82f7c:	f9400fe0 	ldr	x0, [sp, #24]
   82f80:	f9400000 	ldr	x0, [x0]
   82f84:	f9001be0 	str	x0, [sp, #48]
   82f88:	f9400fe0 	ldr	x0, [sp, #24]
   82f8c:	f9400400 	ldr	x0, [x0, #8]
   82f90:	b9002fe0 	str	w0, [sp, #44]
   82f94:	b9003fff 	str	wzr, [sp, #60]
   82f98:	14000009 	b	82fbc <sys_uart_write+0x4c>
   82f9c:	b9803fe0 	ldrsw	x0, [sp, #60]
   82fa0:	f9401be1 	ldr	x1, [sp, #48]
   82fa4:	8b000020 	add	x0, x1, x0
   82fa8:	39400000 	ldrb	w0, [x0]
   82fac:	94000213 	bl	837f8 <uart_send>
   82fb0:	b9403fe0 	ldr	w0, [sp, #60]
   82fb4:	11000400 	add	w0, w0, #0x1
   82fb8:	b9003fe0 	str	w0, [sp, #60]
   82fbc:	b9403fe0 	ldr	w0, [sp, #60]
   82fc0:	b9402fe1 	ldr	w1, [sp, #44]
   82fc4:	6b00003f 	cmp	w1, w0
   82fc8:	54fffea8 	b.hi	82f9c <sys_uart_write+0x2c>  // b.pmore
   82fcc:	b9402fe1 	ldr	w1, [sp, #44]
   82fd0:	f9400fe0 	ldr	x0, [sp, #24]
   82fd4:	f9000001 	str	x1, [x0]
   82fd8:	52800000 	mov	w0, #0x0                   	// #0
   82fdc:	a8c47bfd 	ldp	x29, x30, [sp], #64
   82fe0:	d65f03c0 	ret

0000000000082fe4 <sys_exec>:
   82fe4:	a9be7bfd 	stp	x29, x30, [sp, #-32]!
   82fe8:	910003fd 	mov	x29, sp
   82fec:	f9000fe0 	str	x0, [sp, #24]
   82ff0:	f9400fe0 	ldr	x0, [sp, #24]
   82ff4:	f9400000 	ldr	x0, [x0]
   82ff8:	97fff7ea 	bl	80fa0 <do_exec>
   82ffc:	f9400fe0 	ldr	x0, [sp, #24]
   83000:	f900001f 	str	xzr, [x0]
   83004:	52800000 	mov	w0, #0x0                   	// #0
   83008:	a8c27bfd 	ldp	x29, x30, [sp], #32
   8300c:	d65f03c0 	ret

0000000000083010 <sys_fork>:
   83010:	a9ba7bfd 	stp	x29, x30, [sp, #-96]!
   83014:	910003fd 	mov	x29, sp
   83018:	f9000bf3 	str	x19, [sp, #16]
   8301c:	f90017e0 	str	x0, [sp, #40]
   83020:	97fffb11 	bl	81c64 <find_empty_task>
   83024:	b9005be0 	str	w0, [sp, #88]
   83028:	b9805be1 	ldrsw	x1, [sp, #88]
   8302c:	aa0103e0 	mov	x0, x1
   83030:	d37df000 	lsl	x0, x0, #3
   83034:	8b010000 	add	x0, x0, x1
   83038:	d37cec00 	lsl	x0, x0, #4
   8303c:	d0000001 	adrp	x1, 85000 <exception_handler+0x70>
   83040:	91338021 	add	x1, x1, #0xce0
   83044:	8b010000 	add	x0, x0, x1
   83048:	f9002be0 	str	x0, [sp, #80]
   8304c:	94000864 	bl	851dc <get_current>
   83050:	aa0003e1 	mov	x1, x0
   83054:	f9402be0 	ldr	x0, [sp, #80]
   83058:	ad400420 	ldp	q0, q1, [x1]
   8305c:	ad000400 	stp	q0, q1, [x0]
   83060:	ad410420 	ldp	q0, q1, [x1, #32]
   83064:	ad010400 	stp	q0, q1, [x0, #32]
   83068:	ad420420 	ldp	q0, q1, [x1, #64]
   8306c:	ad020400 	stp	q0, q1, [x0, #64]
   83070:	ad430420 	ldp	q0, q1, [x1, #96]
   83074:	ad030400 	stp	q0, q1, [x0, #96]
   83078:	3dc02020 	ldr	q0, [x1, #128]
   8307c:	3d802000 	str	q0, [x0, #128]
   83080:	b9405be1 	ldr	w1, [sp, #88]
   83084:	f9402be0 	ldr	x0, [sp, #80]
   83088:	b9000001 	str	w1, [x0]
   8308c:	f9402be0 	ldr	x0, [sp, #80]
   83090:	f9400401 	ldr	x1, [x0, #8]
   83094:	f9402be0 	ldr	x0, [sp, #80]
   83098:	f9000801 	str	x1, [x0, #16]
   8309c:	d0000000 	adrp	x0, 85000 <exception_handler+0x70>
   830a0:	91048001 	add	x1, x0, #0x120
   830a4:	f9402be0 	ldr	x0, [sp, #80]
   830a8:	f9003c01 	str	x1, [x0, #120]
   830ac:	b9005fff 	str	wzr, [sp, #92]
   830b0:	1400002a 	b	83158 <sys_fork+0x148>
   830b4:	9400084a 	bl	851dc <get_current>
   830b8:	b9400001 	ldr	w1, [x0]
   830bc:	b0000020 	adrp	x0, 88000 <task_pool+0x2320>
   830c0:	91038002 	add	x2, x0, #0xe0
   830c4:	b9805fe0 	ldrsw	x0, [sp, #92]
   830c8:	2a0103e1 	mov	w1, w1
   830cc:	d374cc21 	lsl	x1, x1, #12
   830d0:	8b010041 	add	x1, x2, x1
   830d4:	8b000020 	add	x0, x1, x0
   830d8:	39400003 	ldrb	w3, [x0]
   830dc:	b0000020 	adrp	x0, 88000 <task_pool+0x2320>
   830e0:	91038002 	add	x2, x0, #0xe0
   830e4:	b9805fe0 	ldrsw	x0, [sp, #92]
   830e8:	b9805be1 	ldrsw	x1, [sp, #88]
   830ec:	d374cc21 	lsl	x1, x1, #12
   830f0:	8b010041 	add	x1, x2, x1
   830f4:	8b000020 	add	x0, x1, x0
   830f8:	2a0303e1 	mov	w1, w3
   830fc:	39000001 	strb	w1, [x0]
   83100:	94000837 	bl	851dc <get_current>
   83104:	b9400001 	ldr	w1, [x0]
   83108:	b0000220 	adrp	x0, c8000 <kstack_pool+0x3ff20>
   8310c:	91038002 	add	x2, x0, #0xe0
   83110:	b9805fe0 	ldrsw	x0, [sp, #92]
   83114:	2a0103e1 	mov	w1, w1
   83118:	d374cc21 	lsl	x1, x1, #12
   8311c:	8b010041 	add	x1, x2, x1
   83120:	8b000020 	add	x0, x1, x0
   83124:	39400003 	ldrb	w3, [x0]
   83128:	b0000220 	adrp	x0, c8000 <kstack_pool+0x3ff20>
   8312c:	91038002 	add	x2, x0, #0xe0
   83130:	b9805fe0 	ldrsw	x0, [sp, #92]
   83134:	b9805be1 	ldrsw	x1, [sp, #88]
   83138:	d374cc21 	lsl	x1, x1, #12
   8313c:	8b010041 	add	x1, x2, x1
   83140:	8b000020 	add	x0, x1, x0
   83144:	2a0303e1 	mov	w1, w3
   83148:	39000001 	strb	w1, [x0]
   8314c:	b9405fe0 	ldr	w0, [sp, #92]
   83150:	11000400 	add	w0, w0, #0x1
   83154:	b9005fe0 	str	w0, [sp, #92]
   83158:	b9405fe0 	ldr	w0, [sp, #92]
   8315c:	713ffc1f 	cmp	w0, #0xfff
   83160:	54fffaad 	b.le	830b4 <sys_fork+0xa4>
   83164:	b9805bf3 	ldrsw	x19, [sp, #88]
   83168:	9400081d 	bl	851dc <get_current>
   8316c:	b9400000 	ldr	w0, [x0]
   83170:	2a0003e0 	mov	w0, w0
   83174:	cb000260 	sub	x0, x19, x0
   83178:	53144c00 	lsl	w0, w0, #12
   8317c:	b9004fe0 	str	w0, [sp, #76]
   83180:	b9805bf3 	ldrsw	x19, [sp, #88]
   83184:	94000816 	bl	851dc <get_current>
   83188:	b9400000 	ldr	w0, [x0]
   8318c:	2a0003e0 	mov	w0, w0
   83190:	cb000260 	sub	x0, x19, x0
   83194:	53144c00 	lsl	w0, w0, #12
   83198:	b9004be0 	str	w0, [sp, #72]
   8319c:	f94017e0 	ldr	x0, [sp, #40]
   831a0:	f90023e0 	str	x0, [sp, #64]
   831a4:	b9804fe0 	ldrsw	x0, [sp, #76]
   831a8:	f94023e1 	ldr	x1, [sp, #64]
   831ac:	8b000020 	add	x0, x1, x0
   831b0:	aa0003e1 	mov	x1, x0
   831b4:	f9402be0 	ldr	x0, [sp, #80]
   831b8:	f9004001 	str	x1, [x0, #128]
   831bc:	f94017e0 	ldr	x0, [sp, #40]
   831c0:	f9407c00 	ldr	x0, [x0, #248]
   831c4:	f9001fe0 	str	x0, [sp, #56]
   831c8:	f9402be0 	ldr	x0, [sp, #80]
   831cc:	f9404000 	ldr	x0, [x0, #128]
   831d0:	f9001be0 	str	x0, [sp, #48]
   831d4:	b9804be0 	ldrsw	x0, [sp, #72]
   831d8:	f9401fe1 	ldr	x1, [sp, #56]
   831dc:	8b000020 	add	x0, x1, x0
   831e0:	aa0003e1 	mov	x1, x0
   831e4:	f9401be0 	ldr	x0, [sp, #48]
   831e8:	f9007c01 	str	x1, [x0, #248]
   831ec:	f9401be0 	ldr	x0, [sp, #48]
   831f0:	f900001f 	str	xzr, [x0]
   831f4:	b9805be1 	ldrsw	x1, [sp, #88]
   831f8:	f94017e0 	ldr	x0, [sp, #40]
   831fc:	f9000001 	str	x1, [x0]
   83200:	52800000 	mov	w0, #0x0                   	// #0
   83204:	f9400bf3 	ldr	x19, [sp, #16]
   83208:	a8c67bfd 	ldp	x29, x30, [sp], #96
   8320c:	d65f03c0 	ret

0000000000083210 <sys_exit>:
   83210:	a9bd7bfd 	stp	x29, x30, [sp, #-48]!
   83214:	910003fd 	mov	x29, sp
   83218:	f9000bf3 	str	x19, [sp, #16]
   8321c:	f90017e0 	str	x0, [sp, #40]
   83220:	940007ef 	bl	851dc <get_current>
   83224:	aa0003e1 	mov	x1, x0
   83228:	52800100 	mov	w0, #0x8                   	// #8
   8322c:	b9000420 	str	w0, [x1, #4]
   83230:	f94017e0 	ldr	x0, [sp, #40]
   83234:	f9400013 	ldr	x19, [x0]
   83238:	940007e9 	bl	851dc <get_current>
   8323c:	2a1303e1 	mov	w1, w19
   83240:	b9001801 	str	w1, [x0, #24]
   83244:	b0000420 	adrp	x0, 108000 <ustack_pool+0x3ff20>
   83248:	91038000 	add	x0, x0, #0xe0
   8324c:	b9400000 	ldr	w0, [x0]
   83250:	51000401 	sub	w1, w0, #0x1
   83254:	b0000420 	adrp	x0, 108000 <ustack_pool+0x3ff20>
   83258:	91038000 	add	x0, x0, #0xe0
   8325c:	b9000001 	str	w1, [x0]
   83260:	97fffb28 	bl	81f00 <schedule>
   83264:	52800000 	mov	w0, #0x0                   	// #0
   83268:	f9400bf3 	ldr	x19, [sp, #16]
   8326c:	a8c37bfd 	ldp	x29, x30, [sp], #48
   83270:	d65f03c0 	ret

0000000000083274 <get_current_time>:
   83274:	d10043ff 	sub	sp, sp, #0x10
   83278:	d53be020 	mrs	x0, cntpct_el0
   8327c:	d53be001 	mrs	x1, cntfrq_el0
   83280:	9ac10800 	udiv	x0, x0, x1
   83284:	f90007e0 	str	x0, [sp, #8]
   83288:	f94007e0 	ldr	x0, [sp, #8]
   8328c:	910043ff 	add	sp, sp, #0x10
   83290:	d65f03c0 	ret

0000000000083294 <timer_init>:
   83294:	d10043ff 	sub	sp, sp, #0x10
   83298:	b9000fff 	str	wzr, [sp, #12]
   8329c:	14000030 	b	8335c <timer_init+0xc8>
   832a0:	b0000420 	adrp	x0, 108000 <ustack_pool+0x3ff20>
   832a4:	9103c002 	add	x2, x0, #0xf0
   832a8:	b9800fe1 	ldrsw	x1, [sp, #12]
   832ac:	aa0103e0 	mov	x0, x1
   832b0:	d37ff800 	lsl	x0, x0, #1
   832b4:	8b010000 	add	x0, x0, x1
   832b8:	d37ef400 	lsl	x0, x0, #2
   832bc:	cb010000 	sub	x0, x0, x1
   832c0:	d37df000 	lsl	x0, x0, #3
   832c4:	8b000040 	add	x0, x2, x0
   832c8:	3900001f 	strb	wzr, [x0]
   832cc:	b0000420 	adrp	x0, 108000 <ustack_pool+0x3ff20>
   832d0:	9103c002 	add	x2, x0, #0xf0
   832d4:	b9800fe1 	ldrsw	x1, [sp, #12]
   832d8:	aa0103e0 	mov	x0, x1
   832dc:	d37ff800 	lsl	x0, x0, #1
   832e0:	8b010000 	add	x0, x0, x1
   832e4:	d37ef400 	lsl	x0, x0, #2
   832e8:	cb010000 	sub	x0, x0, x1
   832ec:	d37df000 	lsl	x0, x0, #3
   832f0:	8b000040 	add	x0, x2, x0
   832f4:	f900041f 	str	xzr, [x0, #8]
   832f8:	b0000420 	adrp	x0, 108000 <ustack_pool+0x3ff20>
   832fc:	9103c002 	add	x2, x0, #0xf0
   83300:	b9800fe1 	ldrsw	x1, [sp, #12]
   83304:	aa0103e0 	mov	x0, x1
   83308:	d37ff800 	lsl	x0, x0, #1
   8330c:	8b010000 	add	x0, x0, x1
   83310:	d37ef400 	lsl	x0, x0, #2
   83314:	cb010000 	sub	x0, x0, x1
   83318:	d37df000 	lsl	x0, x0, #3
   8331c:	8b000040 	add	x0, x2, x0
   83320:	f900081f 	str	xzr, [x0, #16]
   83324:	b0000420 	adrp	x0, 108000 <ustack_pool+0x3ff20>
   83328:	9103c002 	add	x2, x0, #0xf0
   8332c:	b9800fe1 	ldrsw	x1, [sp, #12]
   83330:	aa0103e0 	mov	x0, x1
   83334:	d37ff800 	lsl	x0, x0, #1
   83338:	8b010000 	add	x0, x0, x1
   8333c:	d37ef400 	lsl	x0, x0, #2
   83340:	cb010000 	sub	x0, x0, x1
   83344:	d37df000 	lsl	x0, x0, #3
   83348:	8b000040 	add	x0, x2, x0
   8334c:	3900601f 	strb	wzr, [x0, #24]
   83350:	b9400fe0 	ldr	w0, [sp, #12]
   83354:	11000400 	add	w0, w0, #0x1
   83358:	b9000fe0 	str	w0, [sp, #12]
   8335c:	b9400fe0 	ldr	w0, [sp, #12]
   83360:	7100241f 	cmp	w0, #0x9
   83364:	54fff9ed 	b.le	832a0 <timer_init+0xc>
   83368:	d503201f 	nop
   8336c:	d503201f 	nop
   83370:	910043ff 	add	sp, sp, #0x10
   83374:	d65f03c0 	ret

0000000000083378 <timer_set>:
   83378:	a9bd7bfd 	stp	x29, x30, [sp, #-48]!
   8337c:	910003fd 	mov	x29, sp
   83380:	f9000fe0 	str	x0, [sp, #24]
   83384:	f9000be1 	str	x1, [sp, #16]
   83388:	b9002fff 	str	wzr, [sp, #44]
   8338c:	14000046 	b	834a4 <timer_set+0x12c>
   83390:	b0000420 	adrp	x0, 108000 <ustack_pool+0x3ff20>
   83394:	9103c002 	add	x2, x0, #0xf0
   83398:	b9802fe1 	ldrsw	x1, [sp, #44]
   8339c:	aa0103e0 	mov	x0, x1
   833a0:	d37ff800 	lsl	x0, x0, #1
   833a4:	8b010000 	add	x0, x0, x1
   833a8:	d37ef400 	lsl	x0, x0, #2
   833ac:	cb010000 	sub	x0, x0, x1
   833b0:	d37df000 	lsl	x0, x0, #3
   833b4:	8b000040 	add	x0, x2, x0
   833b8:	39400000 	ldrb	w0, [x0]
   833bc:	7100001f 	cmp	w0, #0x0
   833c0:	540006c1 	b.ne	83498 <timer_set+0x120>  // b.any
   833c4:	b0000420 	adrp	x0, 108000 <ustack_pool+0x3ff20>
   833c8:	9103c002 	add	x2, x0, #0xf0
   833cc:	b9802fe1 	ldrsw	x1, [sp, #44]
   833d0:	aa0103e0 	mov	x0, x1
   833d4:	d37ff800 	lsl	x0, x0, #1
   833d8:	8b010000 	add	x0, x0, x1
   833dc:	d37ef400 	lsl	x0, x0, #2
   833e0:	cb010000 	sub	x0, x0, x1
   833e4:	d37df000 	lsl	x0, x0, #3
   833e8:	8b000040 	add	x0, x2, x0
   833ec:	52800021 	mov	w1, #0x1                   	// #1
   833f0:	39000001 	strb	w1, [x0]
   833f4:	97ffffa0 	bl	83274 <get_current_time>
   833f8:	aa0003e3 	mov	x3, x0
   833fc:	b0000420 	adrp	x0, 108000 <ustack_pool+0x3ff20>
   83400:	9103c002 	add	x2, x0, #0xf0
   83404:	b9802fe1 	ldrsw	x1, [sp, #44]
   83408:	aa0103e0 	mov	x0, x1
   8340c:	d37ff800 	lsl	x0, x0, #1
   83410:	8b010000 	add	x0, x0, x1
   83414:	d37ef400 	lsl	x0, x0, #2
   83418:	cb010000 	sub	x0, x0, x1
   8341c:	d37df000 	lsl	x0, x0, #3
   83420:	8b000040 	add	x0, x2, x0
   83424:	f9000403 	str	x3, [x0, #8]
   83428:	b0000420 	adrp	x0, 108000 <ustack_pool+0x3ff20>
   8342c:	9103c002 	add	x2, x0, #0xf0
   83430:	b9802fe1 	ldrsw	x1, [sp, #44]
   83434:	aa0103e0 	mov	x0, x1
   83438:	d37ff800 	lsl	x0, x0, #1
   8343c:	8b010000 	add	x0, x0, x1
   83440:	d37ef400 	lsl	x0, x0, #2
   83444:	cb010000 	sub	x0, x0, x1
   83448:	d37df000 	lsl	x0, x0, #3
   8344c:	8b000040 	add	x0, x2, x0
   83450:	f9400fe1 	ldr	x1, [sp, #24]
   83454:	f9000801 	str	x1, [x0, #16]
   83458:	b9802fe1 	ldrsw	x1, [sp, #44]
   8345c:	aa0103e0 	mov	x0, x1
   83460:	d37ff800 	lsl	x0, x0, #1
   83464:	8b010000 	add	x0, x0, x1
   83468:	d37ef400 	lsl	x0, x0, #2
   8346c:	cb010000 	sub	x0, x0, x1
   83470:	d37df000 	lsl	x0, x0, #3
   83474:	91004001 	add	x1, x0, #0x10
   83478:	b0000420 	adrp	x0, 108000 <ustack_pool+0x3ff20>
   8347c:	9103c000 	add	x0, x0, #0xf0
   83480:	8b000020 	add	x0, x1, x0
   83484:	91002000 	add	x0, x0, #0x8
   83488:	f9400be1 	ldr	x1, [sp, #16]
   8348c:	97fffe42 	bl	82d94 <strcpy>
   83490:	b9402fe0 	ldr	w0, [sp, #44]
   83494:	1400000b 	b	834c0 <timer_set+0x148>
   83498:	b9402fe0 	ldr	w0, [sp, #44]
   8349c:	11000400 	add	w0, w0, #0x1
   834a0:	b9002fe0 	str	w0, [sp, #44]
   834a4:	b9402fe0 	ldr	w0, [sp, #44]
   834a8:	7100241f 	cmp	w0, #0x9
   834ac:	54fff72d 	b.le	83390 <timer_set+0x18>
   834b0:	d0000000 	adrp	x0, 85000 <exception_handler+0x70>
   834b4:	912f2000 	add	x0, x0, #0xbc8
   834b8:	94000138 	bl	83998 <printf>
   834bc:	12800000 	mov	w0, #0xffffffff            	// #-1
   834c0:	a8c37bfd 	ldp	x29, x30, [sp], #48
   834c4:	d65f03c0 	ret

00000000000834c8 <timer_update>:
   834c8:	a9bd7bfd 	stp	x29, x30, [sp, #-48]!
   834cc:	910003fd 	mov	x29, sp
   834d0:	97ffff69 	bl	83274 <get_current_time>
   834d4:	f90013e0 	str	x0, [sp, #32]
   834d8:	b9002fff 	str	wzr, [sp, #44]
   834dc:	1400006d 	b	83690 <timer_update+0x1c8>
   834e0:	b0000420 	adrp	x0, 108000 <ustack_pool+0x3ff20>
   834e4:	9103c002 	add	x2, x0, #0xf0
   834e8:	b9802fe1 	ldrsw	x1, [sp, #44]
   834ec:	aa0103e0 	mov	x0, x1
   834f0:	d37ff800 	lsl	x0, x0, #1
   834f4:	8b010000 	add	x0, x0, x1
   834f8:	d37ef400 	lsl	x0, x0, #2
   834fc:	cb010000 	sub	x0, x0, x1
   83500:	d37df000 	lsl	x0, x0, #3
   83504:	8b000040 	add	x0, x2, x0
   83508:	39400000 	ldrb	w0, [x0]
   8350c:	7100001f 	cmp	w0, #0x0
   83510:	54000b80 	b.eq	83680 <timer_update+0x1b8>  // b.none
   83514:	b0000420 	adrp	x0, 108000 <ustack_pool+0x3ff20>
   83518:	9103c002 	add	x2, x0, #0xf0
   8351c:	b9802fe1 	ldrsw	x1, [sp, #44]
   83520:	aa0103e0 	mov	x0, x1
   83524:	d37ff800 	lsl	x0, x0, #1
   83528:	8b010000 	add	x0, x0, x1
   8352c:	d37ef400 	lsl	x0, x0, #2
   83530:	cb010000 	sub	x0, x0, x1
   83534:	d37df000 	lsl	x0, x0, #3
   83538:	8b000040 	add	x0, x2, x0
   8353c:	f9400402 	ldr	x2, [x0, #8]
   83540:	b0000420 	adrp	x0, 108000 <ustack_pool+0x3ff20>
   83544:	9103c003 	add	x3, x0, #0xf0
   83548:	b9802fe1 	ldrsw	x1, [sp, #44]
   8354c:	aa0103e0 	mov	x0, x1
   83550:	d37ff800 	lsl	x0, x0, #1
   83554:	8b010000 	add	x0, x0, x1
   83558:	d37ef400 	lsl	x0, x0, #2
   8355c:	cb010000 	sub	x0, x0, x1
   83560:	d37df000 	lsl	x0, x0, #3
   83564:	8b000060 	add	x0, x3, x0
   83568:	f9400800 	ldr	x0, [x0, #16]
   8356c:	8b000040 	add	x0, x2, x0
   83570:	f9000fe0 	str	x0, [sp, #24]
   83574:	b0000420 	adrp	x0, 108000 <ustack_pool+0x3ff20>
   83578:	9103c002 	add	x2, x0, #0xf0
   8357c:	b9802fe1 	ldrsw	x1, [sp, #44]
   83580:	aa0103e0 	mov	x0, x1
   83584:	d37ff800 	lsl	x0, x0, #1
   83588:	8b010000 	add	x0, x0, x1
   8358c:	d37ef400 	lsl	x0, x0, #2
   83590:	cb010000 	sub	x0, x0, x1
   83594:	d37df000 	lsl	x0, x0, #3
   83598:	8b000040 	add	x0, x2, x0
   8359c:	39400000 	ldrb	w0, [x0]
   835a0:	7100041f 	cmp	w0, #0x1
   835a4:	54000701 	b.ne	83684 <timer_update+0x1bc>  // b.any
   835a8:	f9400fe1 	ldr	x1, [sp, #24]
   835ac:	f94013e0 	ldr	x0, [sp, #32]
   835b0:	eb00003f 	cmp	x1, x0
   835b4:	54000682 	b.cs	83684 <timer_update+0x1bc>  // b.hs, b.nlast
   835b8:	b9802fe1 	ldrsw	x1, [sp, #44]
   835bc:	aa0103e0 	mov	x0, x1
   835c0:	d37ff800 	lsl	x0, x0, #1
   835c4:	8b010000 	add	x0, x0, x1
   835c8:	d37ef400 	lsl	x0, x0, #2
   835cc:	cb010000 	sub	x0, x0, x1
   835d0:	d37df000 	lsl	x0, x0, #3
   835d4:	91004001 	add	x1, x0, #0x10
   835d8:	b0000420 	adrp	x0, 108000 <ustack_pool+0x3ff20>
   835dc:	9103c000 	add	x0, x0, #0xf0
   835e0:	8b000020 	add	x0, x1, x0
   835e4:	91002000 	add	x0, x0, #0x8
   835e8:	aa0003e1 	mov	x1, x0
   835ec:	d0000000 	adrp	x0, 85000 <exception_handler+0x70>
   835f0:	912fa000 	add	x0, x0, #0xbe8
   835f4:	940000e9 	bl	83998 <printf>
   835f8:	b0000420 	adrp	x0, 108000 <ustack_pool+0x3ff20>
   835fc:	9103c002 	add	x2, x0, #0xf0
   83600:	b9802fe1 	ldrsw	x1, [sp, #44]
   83604:	aa0103e0 	mov	x0, x1
   83608:	d37ff800 	lsl	x0, x0, #1
   8360c:	8b010000 	add	x0, x0, x1
   83610:	d37ef400 	lsl	x0, x0, #2
   83614:	cb010000 	sub	x0, x0, x1
   83618:	d37df000 	lsl	x0, x0, #3
   8361c:	8b000040 	add	x0, x2, x0
   83620:	3900001f 	strb	wzr, [x0]
   83624:	b0000420 	adrp	x0, 108000 <ustack_pool+0x3ff20>
   83628:	9103c002 	add	x2, x0, #0xf0
   8362c:	b9802fe1 	ldrsw	x1, [sp, #44]
   83630:	aa0103e0 	mov	x0, x1
   83634:	d37ff800 	lsl	x0, x0, #1
   83638:	8b010000 	add	x0, x0, x1
   8363c:	d37ef400 	lsl	x0, x0, #2
   83640:	cb010000 	sub	x0, x0, x1
   83644:	d37df000 	lsl	x0, x0, #3
   83648:	8b000040 	add	x0, x2, x0
   8364c:	f900081f 	str	xzr, [x0, #16]
   83650:	b0000420 	adrp	x0, 108000 <ustack_pool+0x3ff20>
   83654:	9103c002 	add	x2, x0, #0xf0
   83658:	b9802fe1 	ldrsw	x1, [sp, #44]
   8365c:	aa0103e0 	mov	x0, x1
   83660:	d37ff800 	lsl	x0, x0, #1
   83664:	8b010000 	add	x0, x0, x1
   83668:	d37ef400 	lsl	x0, x0, #2
   8366c:	cb010000 	sub	x0, x0, x1
   83670:	d37df000 	lsl	x0, x0, #3
   83674:	8b000040 	add	x0, x2, x0
   83678:	3900601f 	strb	wzr, [x0, #24]
   8367c:	14000002 	b	83684 <timer_update+0x1bc>
   83680:	d503201f 	nop
   83684:	b9402fe0 	ldr	w0, [sp, #44]
   83688:	11000400 	add	w0, w0, #0x1
   8368c:	b9002fe0 	str	w0, [sp, #44]
   83690:	b9402fe0 	ldr	w0, [sp, #44]
   83694:	7100241f 	cmp	w0, #0x9
   83698:	54fff24d 	b.le	834e0 <timer_update+0x18>
   8369c:	d503201f 	nop
   836a0:	d503201f 	nop
   836a4:	a8c37bfd 	ldp	x29, x30, [sp], #48
   836a8:	d65f03c0 	ret

00000000000836ac <uart_init>:
   836ac:	f81f0ff3 	str	x19, [sp, #-16]!
   836b0:	d28a0080 	mov	x0, #0x5004                	// #20484
   836b4:	f2a7e420 	movk	x0, #0x3f21, lsl #16
   836b8:	b9400001 	ldr	w1, [x0]
   836bc:	d28a0080 	mov	x0, #0x5004                	// #20484
   836c0:	f2a7e420 	movk	x0, #0x3f21, lsl #16
   836c4:	32000021 	orr	w1, w1, #0x1
   836c8:	b9000001 	str	w1, [x0]
   836cc:	d28a0c00 	mov	x0, #0x5060                	// #20576
   836d0:	f2a7e420 	movk	x0, #0x3f21, lsl #16
   836d4:	b900001f 	str	wzr, [x0]
   836d8:	d28a0980 	mov	x0, #0x504c                	// #20556
   836dc:	f2a7e420 	movk	x0, #0x3f21, lsl #16
   836e0:	52800061 	mov	w1, #0x3                   	// #3
   836e4:	b9000001 	str	w1, [x0]
   836e8:	d28a0a00 	mov	x0, #0x5050                	// #20560
   836ec:	f2a7e420 	movk	x0, #0x3f21, lsl #16
   836f0:	b900001f 	str	wzr, [x0]
   836f4:	d28a0880 	mov	x0, #0x5044                	// #20548
   836f8:	f2a7e420 	movk	x0, #0x3f21, lsl #16
   836fc:	b900001f 	str	wzr, [x0]
   83700:	d28a0900 	mov	x0, #0x5048                	// #20552
   83704:	f2a7e420 	movk	x0, #0x3f21, lsl #16
   83708:	528018c1 	mov	w1, #0xc6                  	// #198
   8370c:	b9000001 	str	w1, [x0]
   83710:	d28a0d00 	mov	x0, #0x5068                	// #20584
   83714:	f2a7e420 	movk	x0, #0x3f21, lsl #16
   83718:	528021c1 	mov	w1, #0x10e                 	// #270
   8371c:	b9000001 	str	w1, [x0]
   83720:	d2800080 	mov	x0, #0x4                   	// #4
   83724:	f2a7e400 	movk	x0, #0x3f20, lsl #16
   83728:	b9400013 	ldr	w19, [x0]
   8372c:	120e6673 	and	w19, w19, #0xfffc0fff
   83730:	52840000 	mov	w0, #0x2000                	// #8192
   83734:	72a00020 	movk	w0, #0x1, lsl #16
   83738:	2a000273 	orr	w19, w19, w0
   8373c:	d2800080 	mov	x0, #0x4                   	// #4
   83740:	f2a7e400 	movk	x0, #0x3f20, lsl #16
   83744:	b9000013 	str	w19, [x0]
   83748:	d2801280 	mov	x0, #0x94                  	// #148
   8374c:	f2a7e400 	movk	x0, #0x3f20, lsl #16
   83750:	b900001f 	str	wzr, [x0]
   83754:	528012d3 	mov	w19, #0x96                  	// #150
   83758:	14000002 	b	83760 <uart_init+0xb4>
   8375c:	d503201f 	nop
   83760:	2a1303e0 	mov	w0, w19
   83764:	51000413 	sub	w19, w0, #0x1
   83768:	7100001f 	cmp	w0, #0x0
   8376c:	54ffff81 	b.ne	8375c <uart_init+0xb0>  // b.any
   83770:	d2801300 	mov	x0, #0x98                  	// #152
   83774:	f2a7e400 	movk	x0, #0x3f20, lsl #16
   83778:	52980001 	mov	w1, #0xc000                	// #49152
   8377c:	b9000001 	str	w1, [x0]
   83780:	528012d3 	mov	w19, #0x96                  	// #150
   83784:	14000002 	b	8378c <uart_init+0xe0>
   83788:	d503201f 	nop
   8378c:	2a1303e0 	mov	w0, w19
   83790:	51000413 	sub	w19, w0, #0x1
   83794:	7100001f 	cmp	w0, #0x0
   83798:	54ffff81 	b.ne	83788 <uart_init+0xdc>  // b.any
   8379c:	d2801300 	mov	x0, #0x98                  	// #152
   837a0:	f2a7e400 	movk	x0, #0x3f20, lsl #16
   837a4:	b900001f 	str	wzr, [x0]
   837a8:	d28a0c00 	mov	x0, #0x5060                	// #20576
   837ac:	f2a7e420 	movk	x0, #0x3f21, lsl #16
   837b0:	52800061 	mov	w1, #0x3                   	// #3
   837b4:	b9000001 	str	w1, [x0]
   837b8:	d503201f 	nop
   837bc:	f84107f3 	ldr	x19, [sp], #16
   837c0:	d65f03c0 	ret

00000000000837c4 <uart_async_init>:
   837c4:	d28a0880 	mov	x0, #0x5044                	// #20548
   837c8:	f2a7e420 	movk	x0, #0x3f21, lsl #16
   837cc:	52800021 	mov	w1, #0x1                   	// #1
   837d0:	b9000001 	str	w1, [x0]
   837d4:	d2964200 	mov	x0, #0xb210                	// #45584
   837d8:	f2a7e000 	movk	x0, #0x3f00, lsl #16
   837dc:	b9400001 	ldr	w1, [x0]
   837e0:	d2964200 	mov	x0, #0xb210                	// #45584
   837e4:	f2a7e000 	movk	x0, #0x3f00, lsl #16
   837e8:	32030021 	orr	w1, w1, #0x20000000
   837ec:	b9000001 	str	w1, [x0]
   837f0:	d503201f 	nop
   837f4:	d65f03c0 	ret

00000000000837f8 <uart_send>:
   837f8:	d10043ff 	sub	sp, sp, #0x10
   837fc:	b9000fe0 	str	w0, [sp, #12]
   83800:	d503201f 	nop
   83804:	d28a0a80 	mov	x0, #0x5054                	// #20564
   83808:	f2a7e420 	movk	x0, #0x3f21, lsl #16
   8380c:	b9400000 	ldr	w0, [x0]
   83810:	121b0000 	and	w0, w0, #0x20
   83814:	7100001f 	cmp	w0, #0x0
   83818:	54ffff40 	b.eq	83800 <uart_send+0x8>  // b.none
   8381c:	d28a0800 	mov	x0, #0x5040                	// #20544
   83820:	f2a7e420 	movk	x0, #0x3f21, lsl #16
   83824:	b9400fe1 	ldr	w1, [sp, #12]
   83828:	b9000001 	str	w1, [x0]
   8382c:	d503201f 	nop
   83830:	910043ff 	add	sp, sp, #0x10
   83834:	d65f03c0 	ret

0000000000083838 <uart_getc>:
   83838:	d10043ff 	sub	sp, sp, #0x10
   8383c:	d503201f 	nop
   83840:	d28a0a80 	mov	x0, #0x5054                	// #20564
   83844:	f2a7e420 	movk	x0, #0x3f21, lsl #16
   83848:	b9400000 	ldr	w0, [x0]
   8384c:	12000000 	and	w0, w0, #0x1
   83850:	7100001f 	cmp	w0, #0x0
   83854:	54ffff40 	b.eq	8383c <uart_getc+0x4>  // b.none
   83858:	d28a0800 	mov	x0, #0x5040                	// #20544
   8385c:	f2a7e420 	movk	x0, #0x3f21, lsl #16
   83860:	b9400000 	ldr	w0, [x0]
   83864:	39003fe0 	strb	w0, [sp, #15]
   83868:	39403fe0 	ldrb	w0, [sp, #15]
   8386c:	7100341f 	cmp	w0, #0xd
   83870:	54000060 	b.eq	8387c <uart_getc+0x44>  // b.none
   83874:	39403fe0 	ldrb	w0, [sp, #15]
   83878:	14000002 	b	83880 <uart_getc+0x48>
   8387c:	52800140 	mov	w0, #0xa                   	// #10
   83880:	910043ff 	add	sp, sp, #0x10
   83884:	d65f03c0 	ret

0000000000083888 <uart_puts>:
   83888:	a9be7bfd 	stp	x29, x30, [sp, #-32]!
   8388c:	910003fd 	mov	x29, sp
   83890:	f9000fe0 	str	x0, [sp, #24]
   83894:	1400000c 	b	838c4 <uart_puts+0x3c>
   83898:	f9400fe0 	ldr	x0, [sp, #24]
   8389c:	39400000 	ldrb	w0, [x0]
   838a0:	7100281f 	cmp	w0, #0xa
   838a4:	54000061 	b.ne	838b0 <uart_puts+0x28>  // b.any
   838a8:	528001a0 	mov	w0, #0xd                   	// #13
   838ac:	97ffffd3 	bl	837f8 <uart_send>
   838b0:	f9400fe0 	ldr	x0, [sp, #24]
   838b4:	91000401 	add	x1, x0, #0x1
   838b8:	f9000fe1 	str	x1, [sp, #24]
   838bc:	39400000 	ldrb	w0, [x0]
   838c0:	97ffffce 	bl	837f8 <uart_send>
   838c4:	f9400fe0 	ldr	x0, [sp, #24]
   838c8:	39400000 	ldrb	w0, [x0]
   838cc:	7100001f 	cmp	w0, #0x0
   838d0:	54fffe41 	b.ne	83898 <uart_puts+0x10>  // b.any
   838d4:	d503201f 	nop
   838d8:	d503201f 	nop
   838dc:	a8c27bfd 	ldp	x29, x30, [sp], #32
   838e0:	d65f03c0 	ret

00000000000838e4 <uart_hex>:
   838e4:	a9bd7bfd 	stp	x29, x30, [sp, #-48]!
   838e8:	910003fd 	mov	x29, sp
   838ec:	b9001fe0 	str	w0, [sp, #28]
   838f0:	52800380 	mov	w0, #0x1c                  	// #28
   838f4:	b9002fe0 	str	w0, [sp, #44]
   838f8:	14000014 	b	83948 <uart_hex+0x64>
   838fc:	b9402fe0 	ldr	w0, [sp, #44]
   83900:	b9401fe1 	ldr	w1, [sp, #28]
   83904:	1ac02420 	lsr	w0, w1, w0
   83908:	12000c00 	and	w0, w0, #0xf
   8390c:	b9002be0 	str	w0, [sp, #40]
   83910:	b9402be0 	ldr	w0, [sp, #40]
   83914:	7100241f 	cmp	w0, #0x9
   83918:	54000069 	b.ls	83924 <uart_hex+0x40>  // b.plast
   8391c:	528006e0 	mov	w0, #0x37                  	// #55
   83920:	14000002 	b	83928 <uart_hex+0x44>
   83924:	52800600 	mov	w0, #0x30                  	// #48
   83928:	b9402be1 	ldr	w1, [sp, #40]
   8392c:	0b000020 	add	w0, w1, w0
   83930:	b9002be0 	str	w0, [sp, #40]
   83934:	b9402be0 	ldr	w0, [sp, #40]
   83938:	97ffffb0 	bl	837f8 <uart_send>
   8393c:	b9402fe0 	ldr	w0, [sp, #44]
   83940:	51001000 	sub	w0, w0, #0x4
   83944:	b9002fe0 	str	w0, [sp, #44]
   83948:	b9402fe0 	ldr	w0, [sp, #44]
   8394c:	7100001f 	cmp	w0, #0x0
   83950:	54fffd6a 	b.ge	838fc <uart_hex+0x18>  // b.tcont
   83954:	d503201f 	nop
   83958:	d503201f 	nop
   8395c:	a8c37bfd 	ldp	x29, x30, [sp], #48
   83960:	d65f03c0 	ret

0000000000083964 <check_digit>:
   83964:	d10043ff 	sub	sp, sp, #0x10
   83968:	39003fe0 	strb	w0, [sp, #15]
   8396c:	39403fe0 	ldrb	w0, [sp, #15]
   83970:	7100bc1f 	cmp	w0, #0x2f
   83974:	540000c9 	b.ls	8398c <check_digit+0x28>  // b.plast
   83978:	39403fe0 	ldrb	w0, [sp, #15]
   8397c:	7100e41f 	cmp	w0, #0x39
   83980:	54000068 	b.hi	8398c <check_digit+0x28>  // b.pmore
   83984:	52800020 	mov	w0, #0x1                   	// #1
   83988:	14000002 	b	83990 <check_digit+0x2c>
   8398c:	52800000 	mov	w0, #0x0                   	// #0
   83990:	910043ff 	add	sp, sp, #0x10
   83994:	d65f03c0 	ret

0000000000083998 <printf>:
   83998:	a9ad7bfd 	stp	x29, x30, [sp, #-304]!
   8399c:	910003fd 	mov	x29, sp
   839a0:	f9001fe0 	str	x0, [sp, #56]
   839a4:	f9007fe1 	str	x1, [sp, #248]
   839a8:	f90083e2 	str	x2, [sp, #256]
   839ac:	f90087e3 	str	x3, [sp, #264]
   839b0:	f9008be4 	str	x4, [sp, #272]
   839b4:	f9008fe5 	str	x5, [sp, #280]
   839b8:	f90093e6 	str	x6, [sp, #288]
   839bc:	f90097e7 	str	x7, [sp, #296]
   839c0:	3d801fe0 	str	q0, [sp, #112]
   839c4:	3d8023e1 	str	q1, [sp, #128]
   839c8:	3d8027e2 	str	q2, [sp, #144]
   839cc:	3d802be3 	str	q3, [sp, #160]
   839d0:	3d802fe4 	str	q4, [sp, #176]
   839d4:	3d8033e5 	str	q5, [sp, #192]
   839d8:	3d8037e6 	str	q6, [sp, #208]
   839dc:	3d803be7 	str	q7, [sp, #224]
   839e0:	9104c3e0 	add	x0, sp, #0x130
   839e4:	f90027e0 	str	x0, [sp, #72]
   839e8:	9104c3e0 	add	x0, sp, #0x130
   839ec:	f9002be0 	str	x0, [sp, #80]
   839f0:	9103c3e0 	add	x0, sp, #0xf0
   839f4:	f9002fe0 	str	x0, [sp, #88]
   839f8:	128006e0 	mov	w0, #0xffffffc8            	// #-56
   839fc:	b90063e0 	str	w0, [sp, #96]
   83a00:	12800fe0 	mov	w0, #0xffffff80            	// #-128
   83a04:	b90067e0 	str	w0, [sp, #100]
   83a08:	b0000420 	adrp	x0, 108000 <ustack_pool+0x3ff20>
   83a0c:	91118000 	add	x0, x0, #0x460
   83a10:	f90037e0 	str	x0, [sp, #104]
   83a14:	910043e0 	add	x0, sp, #0x10
   83a18:	910123e1 	add	x1, sp, #0x48
   83a1c:	ad400420 	ldp	q0, q1, [x1]
   83a20:	ad000400 	stp	q0, q1, [x0]
   83a24:	910043e0 	add	x0, sp, #0x10
   83a28:	aa0003e2 	mov	x2, x0
   83a2c:	f9401fe1 	ldr	x1, [sp, #56]
   83a30:	f94037e0 	ldr	x0, [sp, #104]
   83a34:	97fffa71 	bl	823f8 <vsprintf>
   83a38:	1400000c 	b	83a68 <printf+0xd0>
   83a3c:	f94037e0 	ldr	x0, [sp, #104]
   83a40:	39400000 	ldrb	w0, [x0]
   83a44:	7100281f 	cmp	w0, #0xa
   83a48:	54000061 	b.ne	83a54 <printf+0xbc>  // b.any
   83a4c:	528001a0 	mov	w0, #0xd                   	// #13
   83a50:	97ffff6a 	bl	837f8 <uart_send>
   83a54:	f94037e0 	ldr	x0, [sp, #104]
   83a58:	91000401 	add	x1, x0, #0x1
   83a5c:	f90037e1 	str	x1, [sp, #104]
   83a60:	39400000 	ldrb	w0, [x0]
   83a64:	97ffff65 	bl	837f8 <uart_send>
   83a68:	f94037e0 	ldr	x0, [sp, #104]
   83a6c:	39400000 	ldrb	w0, [x0]
   83a70:	7100001f 	cmp	w0, #0x0
   83a74:	54fffe41 	b.ne	83a3c <printf+0xa4>  // b.any
   83a78:	d503201f 	nop
   83a7c:	d503201f 	nop
   83a80:	a8d37bfd 	ldp	x29, x30, [sp], #304
   83a84:	d65f03c0 	ret
	...

0000000000084000 <from_el2_to_el1>:
   84000:	58008c01 	ldr	x1, 85180 <exit_kernel+0x60>
   84004:	d5181001 	msr	sctlr_el1, x1
   84008:	d2b00000 	mov	x0, #0x80000000            	// #2147483648
   8400c:	d51c1100 	msr	hcr_el2, x0
   84010:	58008bc1 	ldr	x1, 85188 <exit_kernel+0x68>
   84014:	d5181041 	msr	cpacr_el1, x1
   84018:	d28078a0 	mov	x0, #0x3c5                 	// #965
   8401c:	d51c4000 	msr	spsr_el2, x0
   84020:	d51c403e 	msr	elr_el2, x30
   84024:	d2a000c0 	mov	x0, #0x60000               	// #393216
   84028:	d51c4100 	msr	sp_el1, x0
   8402c:	d69f03e0 	eret

0000000000084030 <move_to_user_mode>:
   84030:	d2a000e0 	mov	x0, #0x70000               	// #458752
   84034:	d5184100 	msr	sp_el0, x0
   84038:	d2800001 	mov	x1, #0x0                   	// #0
   8403c:	d5184001 	msr	spsr_el1, x1
   84040:	d518403e 	msr	elr_el1, x30
   84044:	d69f03e0 	eret
   84048:	d503201f 	nop
   8404c:	d503201f 	nop
   84050:	d503201f 	nop
   84054:	d503201f 	nop
   84058:	d503201f 	nop
   8405c:	d503201f 	nop
   84060:	d503201f 	nop
   84064:	d503201f 	nop
   84068:	d503201f 	nop
   8406c:	d503201f 	nop
   84070:	d503201f 	nop
   84074:	d503201f 	nop
   84078:	d503201f 	nop
   8407c:	d503201f 	nop
   84080:	d503201f 	nop
   84084:	d503201f 	nop
   84088:	d503201f 	nop
   8408c:	d503201f 	nop
   84090:	d503201f 	nop
   84094:	d503201f 	nop
   84098:	d503201f 	nop
   8409c:	d503201f 	nop
   840a0:	d503201f 	nop
   840a4:	d503201f 	nop
   840a8:	d503201f 	nop
   840ac:	d503201f 	nop
   840b0:	d503201f 	nop
   840b4:	d503201f 	nop
   840b8:	d503201f 	nop
   840bc:	d503201f 	nop
   840c0:	d503201f 	nop
   840c4:	d503201f 	nop
   840c8:	d503201f 	nop
   840cc:	d503201f 	nop
   840d0:	d503201f 	nop
   840d4:	d503201f 	nop
   840d8:	d503201f 	nop
   840dc:	d503201f 	nop
   840e0:	d503201f 	nop
   840e4:	d503201f 	nop
   840e8:	d503201f 	nop
   840ec:	d503201f 	nop
   840f0:	d503201f 	nop
   840f4:	d503201f 	nop
   840f8:	d503201f 	nop
   840fc:	d503201f 	nop
   84100:	d503201f 	nop
   84104:	d503201f 	nop
   84108:	d503201f 	nop
   8410c:	d503201f 	nop
   84110:	d503201f 	nop
   84114:	d503201f 	nop
   84118:	d503201f 	nop
   8411c:	d503201f 	nop
   84120:	d503201f 	nop
   84124:	d503201f 	nop
   84128:	d503201f 	nop
   8412c:	d503201f 	nop
   84130:	d503201f 	nop
   84134:	d503201f 	nop
   84138:	d503201f 	nop
   8413c:	d503201f 	nop
   84140:	d503201f 	nop
   84144:	d503201f 	nop
   84148:	d503201f 	nop
   8414c:	d503201f 	nop
   84150:	d503201f 	nop
   84154:	d503201f 	nop
   84158:	d503201f 	nop
   8415c:	d503201f 	nop
   84160:	d503201f 	nop
   84164:	d503201f 	nop
   84168:	d503201f 	nop
   8416c:	d503201f 	nop
   84170:	d503201f 	nop
   84174:	d503201f 	nop
   84178:	d503201f 	nop
   8417c:	d503201f 	nop
   84180:	d503201f 	nop
   84184:	d503201f 	nop
   84188:	d503201f 	nop
   8418c:	d503201f 	nop
   84190:	d503201f 	nop
   84194:	d503201f 	nop
   84198:	d503201f 	nop
   8419c:	d503201f 	nop
   841a0:	d503201f 	nop
   841a4:	d503201f 	nop
   841a8:	d503201f 	nop
   841ac:	d503201f 	nop
   841b0:	d503201f 	nop
   841b4:	d503201f 	nop
   841b8:	d503201f 	nop
   841bc:	d503201f 	nop
   841c0:	d503201f 	nop
   841c4:	d503201f 	nop
   841c8:	d503201f 	nop
   841cc:	d503201f 	nop
   841d0:	d503201f 	nop
   841d4:	d503201f 	nop
   841d8:	d503201f 	nop
   841dc:	d503201f 	nop
   841e0:	d503201f 	nop
   841e4:	d503201f 	nop
   841e8:	d503201f 	nop
   841ec:	d503201f 	nop
   841f0:	d503201f 	nop
   841f4:	d503201f 	nop
   841f8:	d503201f 	nop
   841fc:	d503201f 	nop
   84200:	d503201f 	nop
   84204:	d503201f 	nop
   84208:	d503201f 	nop
   8420c:	d503201f 	nop
   84210:	d503201f 	nop
   84214:	d503201f 	nop
   84218:	d503201f 	nop
   8421c:	d503201f 	nop
   84220:	d503201f 	nop
   84224:	d503201f 	nop
   84228:	d503201f 	nop
   8422c:	d503201f 	nop
   84230:	d503201f 	nop
   84234:	d503201f 	nop
   84238:	d503201f 	nop
   8423c:	d503201f 	nop
   84240:	d503201f 	nop
   84244:	d503201f 	nop
   84248:	d503201f 	nop
   8424c:	d503201f 	nop
   84250:	d503201f 	nop
   84254:	d503201f 	nop
   84258:	d503201f 	nop
   8425c:	d503201f 	nop
   84260:	d503201f 	nop
   84264:	d503201f 	nop
   84268:	d503201f 	nop
   8426c:	d503201f 	nop
   84270:	d503201f 	nop
   84274:	d503201f 	nop
   84278:	d503201f 	nop
   8427c:	d503201f 	nop
   84280:	d503201f 	nop
   84284:	d503201f 	nop
   84288:	d503201f 	nop
   8428c:	d503201f 	nop
   84290:	d503201f 	nop
   84294:	d503201f 	nop
   84298:	d503201f 	nop
   8429c:	d503201f 	nop
   842a0:	d503201f 	nop
   842a4:	d503201f 	nop
   842a8:	d503201f 	nop
   842ac:	d503201f 	nop
   842b0:	d503201f 	nop
   842b4:	d503201f 	nop
   842b8:	d503201f 	nop
   842bc:	d503201f 	nop
   842c0:	d503201f 	nop
   842c4:	d503201f 	nop
   842c8:	d503201f 	nop
   842cc:	d503201f 	nop
   842d0:	d503201f 	nop
   842d4:	d503201f 	nop
   842d8:	d503201f 	nop
   842dc:	d503201f 	nop
   842e0:	d503201f 	nop
   842e4:	d503201f 	nop
   842e8:	d503201f 	nop
   842ec:	d503201f 	nop
   842f0:	d503201f 	nop
   842f4:	d503201f 	nop
   842f8:	d503201f 	nop
   842fc:	d503201f 	nop
   84300:	d503201f 	nop
   84304:	d503201f 	nop
   84308:	d503201f 	nop
   8430c:	d503201f 	nop
   84310:	d503201f 	nop
   84314:	d503201f 	nop
   84318:	d503201f 	nop
   8431c:	d503201f 	nop
   84320:	d503201f 	nop
   84324:	d503201f 	nop
   84328:	d503201f 	nop
   8432c:	d503201f 	nop
   84330:	d503201f 	nop
   84334:	d503201f 	nop
   84338:	d503201f 	nop
   8433c:	d503201f 	nop
   84340:	d503201f 	nop
   84344:	d503201f 	nop
   84348:	d503201f 	nop
   8434c:	d503201f 	nop
   84350:	d503201f 	nop
   84354:	d503201f 	nop
   84358:	d503201f 	nop
   8435c:	d503201f 	nop
   84360:	d503201f 	nop
   84364:	d503201f 	nop
   84368:	d503201f 	nop
   8436c:	d503201f 	nop
   84370:	d503201f 	nop
   84374:	d503201f 	nop
   84378:	d503201f 	nop
   8437c:	d503201f 	nop
   84380:	d503201f 	nop
   84384:	d503201f 	nop
   84388:	d503201f 	nop
   8438c:	d503201f 	nop
   84390:	d503201f 	nop
   84394:	d503201f 	nop
   84398:	d503201f 	nop
   8439c:	d503201f 	nop
   843a0:	d503201f 	nop
   843a4:	d503201f 	nop
   843a8:	d503201f 	nop
   843ac:	d503201f 	nop
   843b0:	d503201f 	nop
   843b4:	d503201f 	nop
   843b8:	d503201f 	nop
   843bc:	d503201f 	nop
   843c0:	d503201f 	nop
   843c4:	d503201f 	nop
   843c8:	d503201f 	nop
   843cc:	d503201f 	nop
   843d0:	d503201f 	nop
   843d4:	d503201f 	nop
   843d8:	d503201f 	nop
   843dc:	d503201f 	nop
   843e0:	d503201f 	nop
   843e4:	d503201f 	nop
   843e8:	d503201f 	nop
   843ec:	d503201f 	nop
   843f0:	d503201f 	nop
   843f4:	d503201f 	nop
   843f8:	d503201f 	nop
   843fc:	d503201f 	nop
   84400:	d503201f 	nop
   84404:	d503201f 	nop
   84408:	d503201f 	nop
   8440c:	d503201f 	nop
   84410:	d503201f 	nop
   84414:	d503201f 	nop
   84418:	d503201f 	nop
   8441c:	d503201f 	nop
   84420:	d503201f 	nop
   84424:	d503201f 	nop
   84428:	d503201f 	nop
   8442c:	d503201f 	nop
   84430:	d503201f 	nop
   84434:	d503201f 	nop
   84438:	d503201f 	nop
   8443c:	d503201f 	nop
   84440:	d503201f 	nop
   84444:	d503201f 	nop
   84448:	d503201f 	nop
   8444c:	d503201f 	nop
   84450:	d503201f 	nop
   84454:	d503201f 	nop
   84458:	d503201f 	nop
   8445c:	d503201f 	nop
   84460:	d503201f 	nop
   84464:	d503201f 	nop
   84468:	d503201f 	nop
   8446c:	d503201f 	nop
   84470:	d503201f 	nop
   84474:	d503201f 	nop
   84478:	d503201f 	nop
   8447c:	d503201f 	nop
   84480:	d503201f 	nop
   84484:	d503201f 	nop
   84488:	d503201f 	nop
   8448c:	d503201f 	nop
   84490:	d503201f 	nop
   84494:	d503201f 	nop
   84498:	d503201f 	nop
   8449c:	d503201f 	nop
   844a0:	d503201f 	nop
   844a4:	d503201f 	nop
   844a8:	d503201f 	nop
   844ac:	d503201f 	nop
   844b0:	d503201f 	nop
   844b4:	d503201f 	nop
   844b8:	d503201f 	nop
   844bc:	d503201f 	nop
   844c0:	d503201f 	nop
   844c4:	d503201f 	nop
   844c8:	d503201f 	nop
   844cc:	d503201f 	nop
   844d0:	d503201f 	nop
   844d4:	d503201f 	nop
   844d8:	d503201f 	nop
   844dc:	d503201f 	nop
   844e0:	d503201f 	nop
   844e4:	d503201f 	nop
   844e8:	d503201f 	nop
   844ec:	d503201f 	nop
   844f0:	d503201f 	nop
   844f4:	d503201f 	nop
   844f8:	d503201f 	nop
   844fc:	d503201f 	nop
   84500:	d503201f 	nop
   84504:	d503201f 	nop
   84508:	d503201f 	nop
   8450c:	d503201f 	nop
   84510:	d503201f 	nop
   84514:	d503201f 	nop
   84518:	d503201f 	nop
   8451c:	d503201f 	nop
   84520:	d503201f 	nop
   84524:	d503201f 	nop
   84528:	d503201f 	nop
   8452c:	d503201f 	nop
   84530:	d503201f 	nop
   84534:	d503201f 	nop
   84538:	d503201f 	nop
   8453c:	d503201f 	nop
   84540:	d503201f 	nop
   84544:	d503201f 	nop
   84548:	d503201f 	nop
   8454c:	d503201f 	nop
   84550:	d503201f 	nop
   84554:	d503201f 	nop
   84558:	d503201f 	nop
   8455c:	d503201f 	nop
   84560:	d503201f 	nop
   84564:	d503201f 	nop
   84568:	d503201f 	nop
   8456c:	d503201f 	nop
   84570:	d503201f 	nop
   84574:	d503201f 	nop
   84578:	d503201f 	nop
   8457c:	d503201f 	nop
   84580:	d503201f 	nop
   84584:	d503201f 	nop
   84588:	d503201f 	nop
   8458c:	d503201f 	nop
   84590:	d503201f 	nop
   84594:	d503201f 	nop
   84598:	d503201f 	nop
   8459c:	d503201f 	nop
   845a0:	d503201f 	nop
   845a4:	d503201f 	nop
   845a8:	d503201f 	nop
   845ac:	d503201f 	nop
   845b0:	d503201f 	nop
   845b4:	d503201f 	nop
   845b8:	d503201f 	nop
   845bc:	d503201f 	nop
   845c0:	d503201f 	nop
   845c4:	d503201f 	nop
   845c8:	d503201f 	nop
   845cc:	d503201f 	nop
   845d0:	d503201f 	nop
   845d4:	d503201f 	nop
   845d8:	d503201f 	nop
   845dc:	d503201f 	nop
   845e0:	d503201f 	nop
   845e4:	d503201f 	nop
   845e8:	d503201f 	nop
   845ec:	d503201f 	nop
   845f0:	d503201f 	nop
   845f4:	d503201f 	nop
   845f8:	d503201f 	nop
   845fc:	d503201f 	nop
   84600:	d503201f 	nop
   84604:	d503201f 	nop
   84608:	d503201f 	nop
   8460c:	d503201f 	nop
   84610:	d503201f 	nop
   84614:	d503201f 	nop
   84618:	d503201f 	nop
   8461c:	d503201f 	nop
   84620:	d503201f 	nop
   84624:	d503201f 	nop
   84628:	d503201f 	nop
   8462c:	d503201f 	nop
   84630:	d503201f 	nop
   84634:	d503201f 	nop
   84638:	d503201f 	nop
   8463c:	d503201f 	nop
   84640:	d503201f 	nop
   84644:	d503201f 	nop
   84648:	d503201f 	nop
   8464c:	d503201f 	nop
   84650:	d503201f 	nop
   84654:	d503201f 	nop
   84658:	d503201f 	nop
   8465c:	d503201f 	nop
   84660:	d503201f 	nop
   84664:	d503201f 	nop
   84668:	d503201f 	nop
   8466c:	d503201f 	nop
   84670:	d503201f 	nop
   84674:	d503201f 	nop
   84678:	d503201f 	nop
   8467c:	d503201f 	nop
   84680:	d503201f 	nop
   84684:	d503201f 	nop
   84688:	d503201f 	nop
   8468c:	d503201f 	nop
   84690:	d503201f 	nop
   84694:	d503201f 	nop
   84698:	d503201f 	nop
   8469c:	d503201f 	nop
   846a0:	d503201f 	nop
   846a4:	d503201f 	nop
   846a8:	d503201f 	nop
   846ac:	d503201f 	nop
   846b0:	d503201f 	nop
   846b4:	d503201f 	nop
   846b8:	d503201f 	nop
   846bc:	d503201f 	nop
   846c0:	d503201f 	nop
   846c4:	d503201f 	nop
   846c8:	d503201f 	nop
   846cc:	d503201f 	nop
   846d0:	d503201f 	nop
   846d4:	d503201f 	nop
   846d8:	d503201f 	nop
   846dc:	d503201f 	nop
   846e0:	d503201f 	nop
   846e4:	d503201f 	nop
   846e8:	d503201f 	nop
   846ec:	d503201f 	nop
   846f0:	d503201f 	nop
   846f4:	d503201f 	nop
   846f8:	d503201f 	nop
   846fc:	d503201f 	nop
   84700:	d503201f 	nop
   84704:	d503201f 	nop
   84708:	d503201f 	nop
   8470c:	d503201f 	nop
   84710:	d503201f 	nop
   84714:	d503201f 	nop
   84718:	d503201f 	nop
   8471c:	d503201f 	nop
   84720:	d503201f 	nop
   84724:	d503201f 	nop
   84728:	d503201f 	nop
   8472c:	d503201f 	nop
   84730:	d503201f 	nop
   84734:	d503201f 	nop
   84738:	d503201f 	nop
   8473c:	d503201f 	nop
   84740:	d503201f 	nop
   84744:	d503201f 	nop
   84748:	d503201f 	nop
   8474c:	d503201f 	nop
   84750:	d503201f 	nop
   84754:	d503201f 	nop
   84758:	d503201f 	nop
   8475c:	d503201f 	nop
   84760:	d503201f 	nop
   84764:	d503201f 	nop
   84768:	d503201f 	nop
   8476c:	d503201f 	nop
   84770:	d503201f 	nop
   84774:	d503201f 	nop
   84778:	d503201f 	nop
   8477c:	d503201f 	nop
   84780:	d503201f 	nop
   84784:	d503201f 	nop
   84788:	d503201f 	nop
   8478c:	d503201f 	nop
   84790:	d503201f 	nop
   84794:	d503201f 	nop
   84798:	d503201f 	nop
   8479c:	d503201f 	nop
   847a0:	d503201f 	nop
   847a4:	d503201f 	nop
   847a8:	d503201f 	nop
   847ac:	d503201f 	nop
   847b0:	d503201f 	nop
   847b4:	d503201f 	nop
   847b8:	d503201f 	nop
   847bc:	d503201f 	nop
   847c0:	d503201f 	nop
   847c4:	d503201f 	nop
   847c8:	d503201f 	nop
   847cc:	d503201f 	nop
   847d0:	d503201f 	nop
   847d4:	d503201f 	nop
   847d8:	d503201f 	nop
   847dc:	d503201f 	nop
   847e0:	d503201f 	nop
   847e4:	d503201f 	nop
   847e8:	d503201f 	nop
   847ec:	d503201f 	nop
   847f0:	d503201f 	nop
   847f4:	d503201f 	nop
   847f8:	d503201f 	nop
   847fc:	d503201f 	nop

0000000000084800 <exception_vector_table>:
   84800:	14000247 	b	8511c <non_handler>
   84804:	d503201f 	nop
   84808:	d503201f 	nop
   8480c:	d503201f 	nop
   84810:	d503201f 	nop
   84814:	d503201f 	nop
   84818:	d503201f 	nop
   8481c:	d503201f 	nop
   84820:	d503201f 	nop
   84824:	d503201f 	nop
   84828:	d503201f 	nop
   8482c:	d503201f 	nop
   84830:	d503201f 	nop
   84834:	d503201f 	nop
   84838:	d503201f 	nop
   8483c:	d503201f 	nop
   84840:	d503201f 	nop
   84844:	d503201f 	nop
   84848:	d503201f 	nop
   8484c:	d503201f 	nop
   84850:	d503201f 	nop
   84854:	d503201f 	nop
   84858:	d503201f 	nop
   8485c:	d503201f 	nop
   84860:	d503201f 	nop
   84864:	d503201f 	nop
   84868:	d503201f 	nop
   8486c:	d503201f 	nop
   84870:	d503201f 	nop
   84874:	d503201f 	nop
   84878:	d503201f 	nop
   8487c:	d503201f 	nop
   84880:	14000227 	b	8511c <non_handler>
   84884:	d503201f 	nop
   84888:	d503201f 	nop
   8488c:	d503201f 	nop
   84890:	d503201f 	nop
   84894:	d503201f 	nop
   84898:	d503201f 	nop
   8489c:	d503201f 	nop
   848a0:	d503201f 	nop
   848a4:	d503201f 	nop
   848a8:	d503201f 	nop
   848ac:	d503201f 	nop
   848b0:	d503201f 	nop
   848b4:	d503201f 	nop
   848b8:	d503201f 	nop
   848bc:	d503201f 	nop
   848c0:	d503201f 	nop
   848c4:	d503201f 	nop
   848c8:	d503201f 	nop
   848cc:	d503201f 	nop
   848d0:	d503201f 	nop
   848d4:	d503201f 	nop
   848d8:	d503201f 	nop
   848dc:	d503201f 	nop
   848e0:	d503201f 	nop
   848e4:	d503201f 	nop
   848e8:	d503201f 	nop
   848ec:	d503201f 	nop
   848f0:	d503201f 	nop
   848f4:	d503201f 	nop
   848f8:	d503201f 	nop
   848fc:	d503201f 	nop
   84900:	14000207 	b	8511c <non_handler>
   84904:	d503201f 	nop
   84908:	d503201f 	nop
   8490c:	d503201f 	nop
   84910:	d503201f 	nop
   84914:	d503201f 	nop
   84918:	d503201f 	nop
   8491c:	d503201f 	nop
   84920:	d503201f 	nop
   84924:	d503201f 	nop
   84928:	d503201f 	nop
   8492c:	d503201f 	nop
   84930:	d503201f 	nop
   84934:	d503201f 	nop
   84938:	d503201f 	nop
   8493c:	d503201f 	nop
   84940:	d503201f 	nop
   84944:	d503201f 	nop
   84948:	d503201f 	nop
   8494c:	d503201f 	nop
   84950:	d503201f 	nop
   84954:	d503201f 	nop
   84958:	d503201f 	nop
   8495c:	d503201f 	nop
   84960:	d503201f 	nop
   84964:	d503201f 	nop
   84968:	d503201f 	nop
   8496c:	d503201f 	nop
   84970:	d503201f 	nop
   84974:	d503201f 	nop
   84978:	d503201f 	nop
   8497c:	d503201f 	nop
   84980:	140001e7 	b	8511c <non_handler>
   84984:	d503201f 	nop
   84988:	d503201f 	nop
   8498c:	d503201f 	nop
   84990:	d503201f 	nop
   84994:	d503201f 	nop
   84998:	d503201f 	nop
   8499c:	d503201f 	nop
   849a0:	d503201f 	nop
   849a4:	d503201f 	nop
   849a8:	d503201f 	nop
   849ac:	d503201f 	nop
   849b0:	d503201f 	nop
   849b4:	d503201f 	nop
   849b8:	d503201f 	nop
   849bc:	d503201f 	nop
   849c0:	d503201f 	nop
   849c4:	d503201f 	nop
   849c8:	d503201f 	nop
   849cc:	d503201f 	nop
   849d0:	d503201f 	nop
   849d4:	d503201f 	nop
   849d8:	d503201f 	nop
   849dc:	d503201f 	nop
   849e0:	d503201f 	nop
   849e4:	d503201f 	nop
   849e8:	d503201f 	nop
   849ec:	d503201f 	nop
   849f0:	d503201f 	nop
   849f4:	d503201f 	nop
   849f8:	d503201f 	nop
   849fc:	d503201f 	nop
   84a00:	14000164 	b	84f90 <exception_handler>
   84a04:	d503201f 	nop
   84a08:	d503201f 	nop
   84a0c:	d503201f 	nop
   84a10:	d503201f 	nop
   84a14:	d503201f 	nop
   84a18:	d503201f 	nop
   84a1c:	d503201f 	nop
   84a20:	d503201f 	nop
   84a24:	d503201f 	nop
   84a28:	d503201f 	nop
   84a2c:	d503201f 	nop
   84a30:	d503201f 	nop
   84a34:	d503201f 	nop
   84a38:	d503201f 	nop
   84a3c:	d503201f 	nop
   84a40:	d503201f 	nop
   84a44:	d503201f 	nop
   84a48:	d503201f 	nop
   84a4c:	d503201f 	nop
   84a50:	d503201f 	nop
   84a54:	d503201f 	nop
   84a58:	d503201f 	nop
   84a5c:	d503201f 	nop
   84a60:	d503201f 	nop
   84a64:	d503201f 	nop
   84a68:	d503201f 	nop
   84a6c:	d503201f 	nop
   84a70:	d503201f 	nop
   84a74:	d503201f 	nop
   84a78:	d503201f 	nop
   84a7c:	d503201f 	nop
   84a80:	14000176 	b	85058 <irq_handler>
   84a84:	d503201f 	nop
   84a88:	d503201f 	nop
   84a8c:	d503201f 	nop
   84a90:	d503201f 	nop
   84a94:	d503201f 	nop
   84a98:	d503201f 	nop
   84a9c:	d503201f 	nop
   84aa0:	d503201f 	nop
   84aa4:	d503201f 	nop
   84aa8:	d503201f 	nop
   84aac:	d503201f 	nop
   84ab0:	d503201f 	nop
   84ab4:	d503201f 	nop
   84ab8:	d503201f 	nop
   84abc:	d503201f 	nop
   84ac0:	d503201f 	nop
   84ac4:	d503201f 	nop
   84ac8:	d503201f 	nop
   84acc:	d503201f 	nop
   84ad0:	d503201f 	nop
   84ad4:	d503201f 	nop
   84ad8:	d503201f 	nop
   84adc:	d503201f 	nop
   84ae0:	d503201f 	nop
   84ae4:	d503201f 	nop
   84ae8:	d503201f 	nop
   84aec:	d503201f 	nop
   84af0:	d503201f 	nop
   84af4:	d503201f 	nop
   84af8:	d503201f 	nop
   84afc:	d503201f 	nop
   84b00:	14000187 	b	8511c <non_handler>
   84b04:	d503201f 	nop
   84b08:	d503201f 	nop
   84b0c:	d503201f 	nop
   84b10:	d503201f 	nop
   84b14:	d503201f 	nop
   84b18:	d503201f 	nop
   84b1c:	d503201f 	nop
   84b20:	d503201f 	nop
   84b24:	d503201f 	nop
   84b28:	d503201f 	nop
   84b2c:	d503201f 	nop
   84b30:	d503201f 	nop
   84b34:	d503201f 	nop
   84b38:	d503201f 	nop
   84b3c:	d503201f 	nop
   84b40:	d503201f 	nop
   84b44:	d503201f 	nop
   84b48:	d503201f 	nop
   84b4c:	d503201f 	nop
   84b50:	d503201f 	nop
   84b54:	d503201f 	nop
   84b58:	d503201f 	nop
   84b5c:	d503201f 	nop
   84b60:	d503201f 	nop
   84b64:	d503201f 	nop
   84b68:	d503201f 	nop
   84b6c:	d503201f 	nop
   84b70:	d503201f 	nop
   84b74:	d503201f 	nop
   84b78:	d503201f 	nop
   84b7c:	d503201f 	nop
   84b80:	14000167 	b	8511c <non_handler>
   84b84:	d503201f 	nop
   84b88:	d503201f 	nop
   84b8c:	d503201f 	nop
   84b90:	d503201f 	nop
   84b94:	d503201f 	nop
   84b98:	d503201f 	nop
   84b9c:	d503201f 	nop
   84ba0:	d503201f 	nop
   84ba4:	d503201f 	nop
   84ba8:	d503201f 	nop
   84bac:	d503201f 	nop
   84bb0:	d503201f 	nop
   84bb4:	d503201f 	nop
   84bb8:	d503201f 	nop
   84bbc:	d503201f 	nop
   84bc0:	d503201f 	nop
   84bc4:	d503201f 	nop
   84bc8:	d503201f 	nop
   84bcc:	d503201f 	nop
   84bd0:	d503201f 	nop
   84bd4:	d503201f 	nop
   84bd8:	d503201f 	nop
   84bdc:	d503201f 	nop
   84be0:	d503201f 	nop
   84be4:	d503201f 	nop
   84be8:	d503201f 	nop
   84bec:	d503201f 	nop
   84bf0:	d503201f 	nop
   84bf4:	d503201f 	nop
   84bf8:	d503201f 	nop
   84bfc:	d503201f 	nop
   84c00:	140000e4 	b	84f90 <exception_handler>
   84c04:	d503201f 	nop
   84c08:	d503201f 	nop
   84c0c:	d503201f 	nop
   84c10:	d503201f 	nop
   84c14:	d503201f 	nop
   84c18:	d503201f 	nop
   84c1c:	d503201f 	nop
   84c20:	d503201f 	nop
   84c24:	d503201f 	nop
   84c28:	d503201f 	nop
   84c2c:	d503201f 	nop
   84c30:	d503201f 	nop
   84c34:	d503201f 	nop
   84c38:	d503201f 	nop
   84c3c:	d503201f 	nop
   84c40:	d503201f 	nop
   84c44:	d503201f 	nop
   84c48:	d503201f 	nop
   84c4c:	d503201f 	nop
   84c50:	d503201f 	nop
   84c54:	d503201f 	nop
   84c58:	d503201f 	nop
   84c5c:	d503201f 	nop
   84c60:	d503201f 	nop
   84c64:	d503201f 	nop
   84c68:	d503201f 	nop
   84c6c:	d503201f 	nop
   84c70:	d503201f 	nop
   84c74:	d503201f 	nop
   84c78:	d503201f 	nop
   84c7c:	d503201f 	nop
   84c80:	140000f6 	b	85058 <irq_handler>
   84c84:	d503201f 	nop
   84c88:	d503201f 	nop
   84c8c:	d503201f 	nop
   84c90:	d503201f 	nop
   84c94:	d503201f 	nop
   84c98:	d503201f 	nop
   84c9c:	d503201f 	nop
   84ca0:	d503201f 	nop
   84ca4:	d503201f 	nop
   84ca8:	d503201f 	nop
   84cac:	d503201f 	nop
   84cb0:	d503201f 	nop
   84cb4:	d503201f 	nop
   84cb8:	d503201f 	nop
   84cbc:	d503201f 	nop
   84cc0:	d503201f 	nop
   84cc4:	d503201f 	nop
   84cc8:	d503201f 	nop
   84ccc:	d503201f 	nop
   84cd0:	d503201f 	nop
   84cd4:	d503201f 	nop
   84cd8:	d503201f 	nop
   84cdc:	d503201f 	nop
   84ce0:	d503201f 	nop
   84ce4:	d503201f 	nop
   84ce8:	d503201f 	nop
   84cec:	d503201f 	nop
   84cf0:	d503201f 	nop
   84cf4:	d503201f 	nop
   84cf8:	d503201f 	nop
   84cfc:	d503201f 	nop
   84d00:	14000107 	b	8511c <non_handler>
   84d04:	d503201f 	nop
   84d08:	d503201f 	nop
   84d0c:	d503201f 	nop
   84d10:	d503201f 	nop
   84d14:	d503201f 	nop
   84d18:	d503201f 	nop
   84d1c:	d503201f 	nop
   84d20:	d503201f 	nop
   84d24:	d503201f 	nop
   84d28:	d503201f 	nop
   84d2c:	d503201f 	nop
   84d30:	d503201f 	nop
   84d34:	d503201f 	nop
   84d38:	d503201f 	nop
   84d3c:	d503201f 	nop
   84d40:	d503201f 	nop
   84d44:	d503201f 	nop
   84d48:	d503201f 	nop
   84d4c:	d503201f 	nop
   84d50:	d503201f 	nop
   84d54:	d503201f 	nop
   84d58:	d503201f 	nop
   84d5c:	d503201f 	nop
   84d60:	d503201f 	nop
   84d64:	d503201f 	nop
   84d68:	d503201f 	nop
   84d6c:	d503201f 	nop
   84d70:	d503201f 	nop
   84d74:	d503201f 	nop
   84d78:	d503201f 	nop
   84d7c:	d503201f 	nop
   84d80:	140000e7 	b	8511c <non_handler>
   84d84:	d503201f 	nop
   84d88:	d503201f 	nop
   84d8c:	d503201f 	nop
   84d90:	d503201f 	nop
   84d94:	d503201f 	nop
   84d98:	d503201f 	nop
   84d9c:	d503201f 	nop
   84da0:	d503201f 	nop
   84da4:	d503201f 	nop
   84da8:	d503201f 	nop
   84dac:	d503201f 	nop
   84db0:	d503201f 	nop
   84db4:	d503201f 	nop
   84db8:	d503201f 	nop
   84dbc:	d503201f 	nop
   84dc0:	d503201f 	nop
   84dc4:	d503201f 	nop
   84dc8:	d503201f 	nop
   84dcc:	d503201f 	nop
   84dd0:	d503201f 	nop
   84dd4:	d503201f 	nop
   84dd8:	d503201f 	nop
   84ddc:	d503201f 	nop
   84de0:	d503201f 	nop
   84de4:	d503201f 	nop
   84de8:	d503201f 	nop
   84dec:	d503201f 	nop
   84df0:	d503201f 	nop
   84df4:	d503201f 	nop
   84df8:	d503201f 	nop
   84dfc:	d503201f 	nop
   84e00:	140000c7 	b	8511c <non_handler>
   84e04:	d503201f 	nop
   84e08:	d503201f 	nop
   84e0c:	d503201f 	nop
   84e10:	d503201f 	nop
   84e14:	d503201f 	nop
   84e18:	d503201f 	nop
   84e1c:	d503201f 	nop
   84e20:	d503201f 	nop
   84e24:	d503201f 	nop
   84e28:	d503201f 	nop
   84e2c:	d503201f 	nop
   84e30:	d503201f 	nop
   84e34:	d503201f 	nop
   84e38:	d503201f 	nop
   84e3c:	d503201f 	nop
   84e40:	d503201f 	nop
   84e44:	d503201f 	nop
   84e48:	d503201f 	nop
   84e4c:	d503201f 	nop
   84e50:	d503201f 	nop
   84e54:	d503201f 	nop
   84e58:	d503201f 	nop
   84e5c:	d503201f 	nop
   84e60:	d503201f 	nop
   84e64:	d503201f 	nop
   84e68:	d503201f 	nop
   84e6c:	d503201f 	nop
   84e70:	d503201f 	nop
   84e74:	d503201f 	nop
   84e78:	d503201f 	nop
   84e7c:	d503201f 	nop
   84e80:	140000a7 	b	8511c <non_handler>
   84e84:	d503201f 	nop
   84e88:	d503201f 	nop
   84e8c:	d503201f 	nop
   84e90:	d503201f 	nop
   84e94:	d503201f 	nop
   84e98:	d503201f 	nop
   84e9c:	d503201f 	nop
   84ea0:	d503201f 	nop
   84ea4:	d503201f 	nop
   84ea8:	d503201f 	nop
   84eac:	d503201f 	nop
   84eb0:	d503201f 	nop
   84eb4:	d503201f 	nop
   84eb8:	d503201f 	nop
   84ebc:	d503201f 	nop
   84ec0:	d503201f 	nop
   84ec4:	d503201f 	nop
   84ec8:	d503201f 	nop
   84ecc:	d503201f 	nop
   84ed0:	d503201f 	nop
   84ed4:	d503201f 	nop
   84ed8:	d503201f 	nop
   84edc:	d503201f 	nop
   84ee0:	d503201f 	nop
   84ee4:	d503201f 	nop
   84ee8:	d503201f 	nop
   84eec:	d503201f 	nop
   84ef0:	d503201f 	nop
   84ef4:	d503201f 	nop
   84ef8:	d503201f 	nop
   84efc:	d503201f 	nop
   84f00:	14000087 	b	8511c <non_handler>
   84f04:	d503201f 	nop
   84f08:	d503201f 	nop
   84f0c:	d503201f 	nop
   84f10:	d503201f 	nop
   84f14:	d503201f 	nop
   84f18:	d503201f 	nop
   84f1c:	d503201f 	nop
   84f20:	d503201f 	nop
   84f24:	d503201f 	nop
   84f28:	d503201f 	nop
   84f2c:	d503201f 	nop
   84f30:	d503201f 	nop
   84f34:	d503201f 	nop
   84f38:	d503201f 	nop
   84f3c:	d503201f 	nop
   84f40:	d503201f 	nop
   84f44:	d503201f 	nop
   84f48:	d503201f 	nop
   84f4c:	d503201f 	nop
   84f50:	d503201f 	nop
   84f54:	d503201f 	nop
   84f58:	d503201f 	nop
   84f5c:	d503201f 	nop
   84f60:	d503201f 	nop
   84f64:	d503201f 	nop
   84f68:	d503201f 	nop
   84f6c:	d503201f 	nop
   84f70:	d503201f 	nop
   84f74:	d503201f 	nop
   84f78:	d503201f 	nop
   84f7c:	d503201f 	nop
   84f80:	14000067 	b	8511c <non_handler>

0000000000084f84 <set_exception_vector_table>:
   84f84:	10ffc3e0 	adr	x0, 84800 <exception_vector_table>
   84f88:	d518c000 	msr	vbar_el1, x0
   84f8c:	d65f03c0 	ret

0000000000084f90 <exception_handler>:
   84f90:	d10443ff 	sub	sp, sp, #0x110
   84f94:	a90007e0 	stp	x0, x1, [sp]
   84f98:	a9010fe2 	stp	x2, x3, [sp, #16]
   84f9c:	a90217e4 	stp	x4, x5, [sp, #32]
   84fa0:	a9031fe6 	stp	x6, x7, [sp, #48]
   84fa4:	a90427e8 	stp	x8, x9, [sp, #64]
   84fa8:	a9052fea 	stp	x10, x11, [sp, #80]
   84fac:	a90637ec 	stp	x12, x13, [sp, #96]
   84fb0:	a9073fee 	stp	x14, x15, [sp, #112]
   84fb4:	a90847f0 	stp	x16, x17, [sp, #128]
   84fb8:	a9094ff2 	stp	x18, x19, [sp, #144]
   84fbc:	a90a57f4 	stp	x20, x21, [sp, #160]
   84fc0:	a90b5ff6 	stp	x22, x23, [sp, #176]
   84fc4:	a90c67f8 	stp	x24, x25, [sp, #192]
   84fc8:	a90d6ffa 	stp	x26, x27, [sp, #208]
   84fcc:	a90e77fc 	stp	x28, x29, [sp, #224]
   84fd0:	d5384115 	mrs	x21, sp_el0
   84fd4:	a90f57fe 	stp	x30, x21, [sp, #240]
   84fd8:	d5384015 	mrs	x21, spsr_el1
   84fdc:	d5384036 	mrs	x22, elr_el1
   84fe0:	a9105bf5 	stp	x21, x22, [sp, #256]
   84fe4:	d5385200 	mrs	x0, esr_el1
   84fe8:	d5384021 	mrs	x1, elr_el1
   84fec:	d5384002 	mrs	x2, spsr_el1
   84ff0:	d5386003 	mrs	x3, far_el1
   84ff4:	910003e4 	mov	x4, sp
   84ff8:	97ffef07 	bl	80c14 <svc_handler>
   84ffc:	a94f57fe 	ldp	x30, x21, [sp, #240]
   85000:	d5184115 	msr	sp_el0, x21
   85004:	a9505bf5 	ldp	x21, x22, [sp, #256]
   85008:	d5184015 	msr	spsr_el1, x21
   8500c:	d5184036 	msr	elr_el1, x22
   85010:	a94007e0 	ldp	x0, x1, [sp]
   85014:	a9410fe2 	ldp	x2, x3, [sp, #16]
   85018:	a94217e4 	ldp	x4, x5, [sp, #32]
   8501c:	a9431fe6 	ldp	x6, x7, [sp, #48]
   85020:	a94427e8 	ldp	x8, x9, [sp, #64]
   85024:	a9452fea 	ldp	x10, x11, [sp, #80]
   85028:	a94637ec 	ldp	x12, x13, [sp, #96]
   8502c:	a9473fee 	ldp	x14, x15, [sp, #112]
   85030:	a94847f0 	ldp	x16, x17, [sp, #128]
   85034:	a9494ff2 	ldp	x18, x19, [sp, #144]
   85038:	a94a57f4 	ldp	x20, x21, [sp, #160]
   8503c:	a94b5ff6 	ldp	x22, x23, [sp, #176]
   85040:	a94c67f8 	ldp	x24, x25, [sp, #192]
   85044:	a94d6ffa 	ldp	x26, x27, [sp, #208]
   85048:	a94e77fc 	ldp	x28, x29, [sp, #224]
   8504c:	f9407bfe 	ldr	x30, [sp, #240]
   85050:	910443ff 	add	sp, sp, #0x110
   85054:	d69f03e0 	eret

0000000000085058 <irq_handler>:
   85058:	d10443ff 	sub	sp, sp, #0x110
   8505c:	a90007e0 	stp	x0, x1, [sp]
   85060:	a9010fe2 	stp	x2, x3, [sp, #16]
   85064:	a90217e4 	stp	x4, x5, [sp, #32]
   85068:	a9031fe6 	stp	x6, x7, [sp, #48]
   8506c:	a90427e8 	stp	x8, x9, [sp, #64]
   85070:	a9052fea 	stp	x10, x11, [sp, #80]
   85074:	a90637ec 	stp	x12, x13, [sp, #96]
   85078:	a9073fee 	stp	x14, x15, [sp, #112]
   8507c:	a90847f0 	stp	x16, x17, [sp, #128]
   85080:	a9094ff2 	stp	x18, x19, [sp, #144]
   85084:	a90a57f4 	stp	x20, x21, [sp, #160]
   85088:	a90b5ff6 	stp	x22, x23, [sp, #176]
   8508c:	a90c67f8 	stp	x24, x25, [sp, #192]
   85090:	a90d6ffa 	stp	x26, x27, [sp, #208]
   85094:	a90e77fc 	stp	x28, x29, [sp, #224]
   85098:	d5384115 	mrs	x21, sp_el0
   8509c:	a90f57fe 	stp	x30, x21, [sp, #240]
   850a0:	d5384015 	mrs	x21, spsr_el1
   850a4:	d5384036 	mrs	x22, elr_el1
   850a8:	a9105bf5 	stp	x21, x22, [sp, #256]
   850ac:	d5385200 	mrs	x0, esr_el1
   850b0:	d5384021 	mrs	x1, elr_el1
   850b4:	d5384002 	mrs	x2, spsr_el1
   850b8:	d5386003 	mrs	x3, far_el1
   850bc:	97ffef6f 	bl	80e78 <irq_router>
   850c0:	a94f57fe 	ldp	x30, x21, [sp, #240]
   850c4:	d5184115 	msr	sp_el0, x21
   850c8:	a9505bf5 	ldp	x21, x22, [sp, #256]
   850cc:	d5184015 	msr	spsr_el1, x21
   850d0:	d5184036 	msr	elr_el1, x22
   850d4:	a94007e0 	ldp	x0, x1, [sp]
   850d8:	a9410fe2 	ldp	x2, x3, [sp, #16]
   850dc:	a94217e4 	ldp	x4, x5, [sp, #32]
   850e0:	a9431fe6 	ldp	x6, x7, [sp, #48]
   850e4:	a94427e8 	ldp	x8, x9, [sp, #64]
   850e8:	a9452fea 	ldp	x10, x11, [sp, #80]
   850ec:	a94637ec 	ldp	x12, x13, [sp, #96]
   850f0:	a9473fee 	ldp	x14, x15, [sp, #112]
   850f4:	a94847f0 	ldp	x16, x17, [sp, #128]
   850f8:	a9494ff2 	ldp	x18, x19, [sp, #144]
   850fc:	a94a57f4 	ldp	x20, x21, [sp, #160]
   85100:	a94b5ff6 	ldp	x22, x23, [sp, #176]
   85104:	a94c67f8 	ldp	x24, x25, [sp, #192]
   85108:	a94d6ffa 	ldp	x26, x27, [sp, #208]
   8510c:	a94e77fc 	ldp	x28, x29, [sp, #224]
   85110:	f9407bfe 	ldr	x30, [sp, #240]
   85114:	910443ff 	add	sp, sp, #0x110
   85118:	d69f03e0 	eret

000000000008511c <non_handler>:
   8511c:	14000000 	b	8511c <non_handler>

0000000000085120 <exit_kernel>:
   85120:	a94f57fe 	ldp	x30, x21, [sp, #240]
   85124:	d5184115 	msr	sp_el0, x21
   85128:	a9505bf5 	ldp	x21, x22, [sp, #256]
   8512c:	d5184015 	msr	spsr_el1, x21
   85130:	d5184036 	msr	elr_el1, x22
   85134:	a94007e0 	ldp	x0, x1, [sp]
   85138:	a9410fe2 	ldp	x2, x3, [sp, #16]
   8513c:	a94217e4 	ldp	x4, x5, [sp, #32]
   85140:	a9431fe6 	ldp	x6, x7, [sp, #48]
   85144:	a94427e8 	ldp	x8, x9, [sp, #64]
   85148:	a9452fea 	ldp	x10, x11, [sp, #80]
   8514c:	a94637ec 	ldp	x12, x13, [sp, #96]
   85150:	a9473fee 	ldp	x14, x15, [sp, #112]
   85154:	a94847f0 	ldp	x16, x17, [sp, #128]
   85158:	a9494ff2 	ldp	x18, x19, [sp, #144]
   8515c:	a94a57f4 	ldp	x20, x21, [sp, #160]
   85160:	a94b5ff6 	ldp	x22, x23, [sp, #176]
   85164:	a94c67f8 	ldp	x24, x25, [sp, #192]
   85168:	a94d6ffa 	ldp	x26, x27, [sp, #208]
   8516c:	a94e77fc 	ldp	x28, x29, [sp, #224]
   85170:	f9407bfe 	ldr	x30, [sp, #240]
   85174:	910443ff 	add	sp, sp, #0x110
   85178:	d69f03e0 	eret
	...
   85188:	00300000 	.word	0x00300000
   8518c:	00000000 	.word	0x00000000

0000000000085190 <update_current>:
   85190:	d518d080 	msr	tpidr_el1, x0
   85194:	d65f03c0 	ret

0000000000085198 <switch_to>:
   85198:	910003e9 	mov	x9, sp
   8519c:	a9005013 	stp	x19, x20, [x0]
   851a0:	a9015815 	stp	x21, x22, [x0, #16]
   851a4:	a9026017 	stp	x23, x24, [x0, #32]
   851a8:	a9036819 	stp	x25, x26, [x0, #48]
   851ac:	a904701b 	stp	x27, x28, [x0, #64]
   851b0:	a905781d 	stp	x29, x30, [x0, #80]
   851b4:	f9003009 	str	x9, [x0, #96]
   851b8:	a9405033 	ldp	x19, x20, [x1]
   851bc:	a9415835 	ldp	x21, x22, [x1, #16]
   851c0:	a9426037 	ldp	x23, x24, [x1, #32]
   851c4:	a9436839 	ldp	x25, x26, [x1, #48]
   851c8:	a944703b 	ldp	x27, x28, [x1, #64]
   851cc:	a945783d 	ldp	x29, x30, [x1, #80]
   851d0:	f9403029 	ldr	x9, [x1, #96]
   851d4:	9100013f 	mov	sp, x9
   851d8:	d65f03c0 	ret

00000000000851dc <get_current>:
   851dc:	d538d080 	mrs	x0, tpidr_el1
   851e0:	d65f03c0 	ret

00000000000851e4 <get_taskid>:
   851e4:	d2800008 	mov	x8, #0x0                   	// #0
   851e8:	d4000001 	svc	#0x0
   851ec:	d65f03c0 	ret

00000000000851f0 <uart_read>:
   851f0:	d2800028 	mov	x8, #0x1                   	// #1
   851f4:	d4000001 	svc	#0x0
   851f8:	d65f03c0 	ret

00000000000851fc <uart_write>:
   851fc:	d2800048 	mov	x8, #0x2                   	// #2
   85200:	d4000001 	svc	#0x0
   85204:	d65f03c0 	ret

0000000000085208 <exec>:
   85208:	d2800068 	mov	x8, #0x3                   	// #3
   8520c:	d4000001 	svc	#0x0
   85210:	d65f03c0 	ret

0000000000085214 <fork>:
   85214:	d2800088 	mov	x8, #0x4                   	// #4
   85218:	d4000001 	svc	#0x0
   8521c:	d65f03c0 	ret

0000000000085220 <exit>:
   85220:	d28000a8 	mov	x8, #0x5                   	// #5
   85224:	d4000001 	svc	#0x0
   85228:	d65f03c0 	ret
   8522c:	00000000 	udf	#0

0000000000085230 <core_timer_enable>:
   85230:	d2800020 	mov	x0, #0x1                   	// #1
   85234:	d51be220 	msr	cntp_ctl_el0, x0
   85238:	d53be000 	mrs	x0, cntfrq_el0
   8523c:	d51be200 	msr	cntp_tval_el0, x0
   85240:	d2800040 	mov	x0, #0x2                   	// #2
   85244:	58000061 	ldr	x1, 85250 <core_timer_enable+0x20>
   85248:	f9000020 	str	x0, [x1]
   8524c:	d65f03c0 	ret
   85250:	40000040 	.word	0x40000040
   85254:	00000000 	.word	0x00000000
